Archive member included because of file (symbol)

/opt/PetaLinux/petalinux-v2013.10-final/tools/linux-i386/arm-xilinx-linux-gnueabi/bin/../lib/gcc/arm-xilinx-linux-gnueabi/4.7.3/libgcc.a(_udivsi3.o)
                              arch/arm/cpu/armv7/zynq/libzynq.o (__aeabi_uidiv)
/opt/PetaLinux/petalinux-v2013.10-final/tools/linux-i386/arm-xilinx-linux-gnueabi/bin/../lib/gcc/arm-xilinx-linux-gnueabi/4.7.3/libgcc.a(_divsi3.o)
                              common/libcommon.o (__aeabi_idiv)
/opt/PetaLinux/petalinux-v2013.10-final/tools/linux-i386/arm-xilinx-linux-gnueabi/bin/../lib/gcc/arm-xilinx-linux-gnueabi/4.7.3/libgcc.a(_lshrdi3.o)
                              common/libcommon.o (__aeabi_llsr)
/opt/PetaLinux/petalinux-v2013.10-final/tools/linux-i386/arm-xilinx-linux-gnueabi/bin/../lib/gcc/arm-xilinx-linux-gnueabi/4.7.3/libgcc.a(_ashldi3.o)
                              drivers/mmc/libmmc.o (__aeabi_llsl)
/opt/PetaLinux/petalinux-v2013.10-final/tools/linux-i386/arm-xilinx-linux-gnueabi/bin/../lib/gcc/arm-xilinx-linux-gnueabi/4.7.3/libgcc.a(_aeabi_uldivmod.o)
                              arch/arm/cpu/armv7/zynq/libzynq.o (__aeabi_uldivmod)
/opt/PetaLinux/petalinux-v2013.10-final/tools/linux-i386/arm-xilinx-linux-gnueabi/bin/../lib/gcc/arm-xilinx-linux-gnueabi/4.7.3/libgcc.a(_dvmd_lnx.o)
                              /opt/PetaLinux/petalinux-v2013.10-final/tools/linux-i386/arm-xilinx-linux-gnueabi/bin/../lib/gcc/arm-xilinx-linux-gnueabi/4.7.3/libgcc.a(_udivsi3.o) (__aeabi_idiv0)
/opt/PetaLinux/petalinux-v2013.10-final/tools/linux-i386/arm-xilinx-linux-gnueabi/bin/../lib/gcc/arm-xilinx-linux-gnueabi/4.7.3/libgcc.a(bpabi.o)
                              /opt/PetaLinux/petalinux-v2013.10-final/tools/linux-i386/arm-xilinx-linux-gnueabi/bin/../lib/gcc/arm-xilinx-linux-gnueabi/4.7.3/libgcc.a(_aeabi_uldivmod.o) (__gnu_uldivmod_helper)
/opt/PetaLinux/petalinux-v2013.10-final/tools/linux-i386/arm-xilinx-linux-gnueabi/bin/../lib/gcc/arm-xilinx-linux-gnueabi/4.7.3/libgcc.a(_divdi3.o)
                              /opt/PetaLinux/petalinux-v2013.10-final/tools/linux-i386/arm-xilinx-linux-gnueabi/bin/../lib/gcc/arm-xilinx-linux-gnueabi/4.7.3/libgcc.a(bpabi.o) (__divdi3)
/opt/PetaLinux/petalinux-v2013.10-final/tools/linux-i386/arm-xilinx-linux-gnueabi/bin/../lib/gcc/arm-xilinx-linux-gnueabi/4.7.3/libgcc.a(_udivdi3.o)
                              /opt/PetaLinux/petalinux-v2013.10-final/tools/linux-i386/arm-xilinx-linux-gnueabi/bin/../lib/gcc/arm-xilinx-linux-gnueabi/4.7.3/libgcc.a(bpabi.o) (__udivdi3)

Discarded input sections

 .data          0x00000000        0x0 arch/arm/cpu/armv7/start.o
 .bss           0x00000000        0x0 arch/arm/cpu/armv7/start.o
 .text          0x00000000        0x0 arch/arm/cpu/armv7/libarmv7.o
 .text.sdelay   0x00000000        0xc arch/arm/cpu/armv7/libarmv7.o
 .text.sr32     0x00000000       0x24 arch/arm/cpu/armv7/libarmv7.o
 .text.wait_on_value
                0x00000000       0x34 arch/arm/cpu/armv7/libarmv7.o
 .data          0x00000000        0x0 arch/arm/cpu/armv7/libarmv7.o
 .bss           0x00000000        0x0 arch/arm/cpu/armv7/libarmv7.o
 .text.zynq_slcr_get_boot_mode
                0x00000000        0xc arch/arm/cpu/armv7/zynq/libzynq.o
 .data          0x00000000        0x0 arch/arm/cpu/armv7/zynq/libzynq.o
 .bss           0x00000000        0x0 arch/arm/cpu/armv7/zynq/libzynq.o
 .text.__arch_cpu_init
                0x00000000        0x8 arch/arm/lib/libarm.o
 .text.__red_led_off
                0x00000000        0x4 arch/arm/lib/libarm.o
 .text.__green_led_on
                0x00000000        0x4 arch/arm/lib/libarm.o
 .text.__green_led_off
                0x00000000        0x4 arch/arm/lib/libarm.o
 .text.__yellow_led_on
                0x00000000        0x4 arch/arm/lib/libarm.o
 .text.__yellow_led_off
                0x00000000        0x4 arch/arm/lib/libarm.o
 .text.__blue_led_on
                0x00000000        0x4 arch/arm/lib/libarm.o
 .text.__blue_led_off
                0x00000000        0x4 arch/arm/lib/libarm.o
 .text.setup_board_tags
                0x00000000        0x4 arch/arm/lib/libarm.o
 .text.__flush_cache
                0x00000000        0x4 arch/arm/lib/libarm.o
 .text.__flush_dcache_all
                0x00000000        0xc arch/arm/lib/libarm.o
 .text.__enable_caches
                0x00000000        0xc arch/arm/lib/libarm.o
 .text.__arm_init_before_mmu
                0x00000000        0x4 arch/arm/lib/libarm.o
 .text.__mmu_page_table_flush
                0x00000000        0x4 arch/arm/lib/libarm.o
 .data          0x00000000        0x0 arch/arm/lib/libarm.o
 .bss           0x00000000        0x0 arch/arm/lib/libarm.o
 .text          0x00000000        0x0 common/libcommon.o
 .text.invalidate_icache_all
                0x00000000        0xc common/libcommon.o
 .text.flush_dcache_all
                0x00000000        0xc common/libcommon.o
 .text.fputs    0x00000000       0x28 common/libcommon.o
 .text.fprintf  0x00000000       0x48 common/libcommon.o
 .text.disable_ctrlc
                0x00000000       0x18 common/libcommon.o
 .text.dbg      0x00000000        0xc common/libcommon.o
 .text.cfree    0x00000000        0x4 common/libcommon.o
 .text.pvalloc  0x00000000       0x18 common/libcommon.o
 .text.valloc   0x00000000        0xc common/libcommon.o
 .text.malloc_usable_size
                0x00000000       0x3c common/libcommon.o
 .text.mallopt  0x00000000       0x68 common/libcommon.o
 .text.env_flags_parse_varaccess_from_binflags
                0x00000000       0x4c common/libcommon.o
 .text.of_bus_default_map
                0x00000000       0xe4 common/libcommon.o
 .text.of_bus_default_count_cells
                0x00000000       0x74 common/libcommon.o
 .text.of_bus_default_translate
                0x00000000       0xa8 common/libcommon.o
 .text.fdt_getprop_u32_default
                0x00000000       0x48 common/libcommon.o
 .text.do_fixup_by_path_u32
                0x00000000       0x2c common/libcommon.o
 .text.do_fixup_by_prop
                0x00000000       0x94 common/libcommon.o
 .text.do_fixup_by_prop_u32
                0x00000000       0x3c common/libcommon.o
 .text.do_fixup_by_compat
                0x00000000       0x84 common/libcommon.o
 .text.do_fixup_by_compat_u32
                0x00000000       0x2c common/libcommon.o
 .text.fdt_increase_size
                0x00000000       0x14 common/libcommon.o
 .text.fdt_del_node_and_alias
                0x00000000       0x44 common/libcommon.o
 .text.fdt_translate_address
                0x00000000      0x2a4 common/libcommon.o
 .text.fdt_node_offset_by_compat_reg
                0x00000000       0x84 common/libcommon.o
 .text.fdt_alloc_phandle
                0x00000000       0x58 common/libcommon.o
 .text.fdt_set_phandle
                0x00000000       0x60 common/libcommon.o
 .text.fdt_create_phandle
                0x00000000       0x64 common/libcommon.o
 .text.fdt_set_node_status
                0x00000000      0x10c common/libcommon.o
 .text.fdt_set_status_by_alias
                0x00000000       0x2c common/libcommon.o
 .text.fdt_verify_alias_address
                0x00000000       0xcc common/libcommon.o
 .text.fdt_get_base_address
                0x00000000       0x8c common/libcommon.o
 .text.hash_block
                0x00000000       0x80 common/libcommon.o
 .text.unset_local_var
                0x00000000       0xa4 common/libcommon.o
 .text.arch_fixup_memory_node
                0x00000000        0x8 common/libcommon.o
 .text.fit_get_timestamp
                0x00000000       0x50 common/libcommon.o
 .text.fit_set_timestamp
                0x00000000       0x7c common/libcommon.o
 .text.fit_conf_find_compat
                0x00000000      0x1ac common/libcommon.o
 .text.parse_line
                0x00000000       0x88 common/libcommon.o
 .text.get_ram_size
                0x00000000      0x100 common/libcommon.o
 .text.mdio_register
                0x00000000       0x8c common/libcommon.o
 .text.mdio_list_devices
                0x00000000       0x9c common/libcommon.o
 .text.miiphy_set_current_dev
                0x00000000       0x40 common/libcommon.o
 .text.miiphy_get_active_dev
                0x00000000       0x54 common/libcommon.o
 .text.mdio_get_current_dev
                0x00000000       0x10 common/libcommon.o
 .text.mdio_phydev_for_ethname
                0x00000000       0x8c common/libcommon.o
 .text.miiphy_get_current_dev
                0x00000000       0x18 common/libcommon.o
 .text.miiphy_read
                0x00000000       0x4c common/libcommon.o
 .text.miiphy_write
                0x00000000       0x40 common/libcommon.o
 .text.miiphy_listdev
                0x00000000       0x74 common/libcommon.o
 .text.miiphy_info
                0x00000000       0x84 common/libcommon.o
 .text.miiphy_speed
                0x00000000       0xa8 common/libcommon.o
 .text.miiphy_duplex
                0x00000000       0xa8 common/libcommon.o
 .text.miiphy_is_1000base_x
                0x00000000        0x8 common/libcommon.o
 .text.miiphy_link
                0x00000000       0x54 common/libcommon.o
 .text.__splash_screen_prepare
                0x00000000        0x8 common/libcommon.o
 .rodata.__FUNCTION__.7245
                0x00000000       0x17 common/libcommon.o
 .data          0x00000000        0x0 common/libcommon.o
 .data.mmap_threshold
                0x00000000        0x4 common/libcommon.o
 .data.of_busses
                0x00000000       0x14 common/libcommon.o
 .data.hash_algo
                0x00000000       0x10 common/libcommon.o
 .bss           0x00000000        0x0 common/libcommon.o
 .bss.n_mmaps_max
                0x00000000        0x4 common/libcommon.o
 .bss.save_addr
                0x00000000        0x4 common/libcommon.o
 .bss.save_size
                0x00000000        0x4 common/libcommon.o
 .text          0x00000000        0x0 disk/libdisk.o
 .data          0x00000000        0x0 disk/libdisk.o
 .bss           0x00000000        0x0 disk/libdisk.o
 .text          0x00000000        0x0 drivers/fpga/libfpga.o
 .data          0x00000000        0x0 drivers/fpga/libfpga.o
 .bss           0x00000000        0x0 drivers/fpga/libfpga.o
 .text          0x00000000        0x0 drivers/input/libinput.o
 .text.input_tstc
                0x00000000       0x48 drivers/input/libinput.o
 .text.input_getc
                0x00000000       0x5c drivers/input/libinput.o
 .text.input_send_keycodes
                0x00000000      0x3a8 drivers/input/libinput.o
 .text.input_add_table
                0x00000000       0x40 drivers/input/libinput.o
 .text.input_set_delays
                0x00000000        0xc drivers/input/libinput.o
 .text.input_init
                0x00000000       0x9c drivers/input/libinput.o
 .text.input_stdio_register
                0x00000000       0x54 drivers/input/libinput.o
 .rodata.kbd_to_ansi364
                0x00000000       0x20 drivers/input/libinput.o
 .rodata.kbd_plain_xlate
                0x00000000       0x63 drivers/input/libinput.o
 .rodata.str1.1
                0x00000000       0x16 drivers/input/libinput.o
 .rodata.CSWTCH.26
                0x00000000        0xd drivers/input/libinput.o
 .data          0x00000000        0x0 drivers/input/libinput.o
 .data.kbd_ctrl_xlate
                0x00000000       0x63 drivers/input/libinput.o
 .data.kbd_shift_xlate
                0x00000000       0x63 drivers/input/libinput.o
 .bss           0x00000000        0x0 drivers/input/libinput.o
 .comment       0x00000000       0x31 drivers/input/libinput.o
 .note.GNU-stack
                0x00000000        0x0 drivers/input/libinput.o
 .ARM.attributes
                0x00000000       0x2d drivers/input/libinput.o
 .debug_aranges
                0x00000000       0x50 drivers/input/libinput.o
 .debug_info    0x00000000     0x11a5 drivers/input/libinput.o
 .debug_abbrev  0x00000000      0x394 drivers/input/libinput.o
 .debug_line    0x00000000      0x39c drivers/input/libinput.o
 .debug_frame   0x00000000       0xcc drivers/input/libinput.o
 .debug_str     0x00000000      0x689 drivers/input/libinput.o
 .debug_loc     0x00000000      0x94b drivers/input/libinput.o
 .debug_ranges  0x00000000      0x1e0 drivers/input/libinput.o
 .text          0x00000000        0x0 drivers/mmc/libmmc.o
 .text.mmc_set_preinit
                0x00000000        0x8 drivers/mmc/libmmc.o
 .data          0x00000000        0x0 drivers/mmc/libmmc.o
 .bss           0x00000000        0x0 drivers/mmc/libmmc.o
 .text          0x00000000        0x0 drivers/mtd/spi/libspi_flash.o
 .text.spi_flash_cmd_write_status
                0x00000000       0x2c drivers/mtd/spi/libspi_flash.o
 .data          0x00000000        0x0 drivers/mtd/spi/libspi_flash.o
 .bss           0x00000000        0x0 drivers/mtd/spi/libspi_flash.o
 .text          0x00000000        0x0 drivers/net/libnet.o
 .data          0x00000000        0x0 drivers/net/libnet.o
 .bss           0x00000000        0x0 drivers/net/libnet.o
 .text          0x00000000        0x0 drivers/net/phy/libphy.o
 .text.miiphy_reset
                0x00000000       0x24 drivers/net/phy/libphy.o
 .text.phy_shutdown
                0x00000000       0x20 drivers/net/phy/libphy.o
 .data          0x00000000        0x0 drivers/net/phy/libphy.o
 .bss           0x00000000        0x0 drivers/net/phy/libphy.o
 .text          0x00000000        0x0 drivers/pcmcia/libpcmcia.o
 .data          0x00000000        0x0 drivers/pcmcia/libpcmcia.o
 .bss           0x00000000        0x0 drivers/pcmcia/libpcmcia.o
 .comment       0x00000000       0x62 drivers/pcmcia/libpcmcia.o
 .note.GNU-stack
                0x00000000        0x0 drivers/pcmcia/libpcmcia.o
 .ARM.attributes
                0x00000000       0x2d drivers/pcmcia/libpcmcia.o
 .debug_aranges
                0x00000000       0x30 drivers/pcmcia/libpcmcia.o
 .debug_info    0x00000000      0x646 drivers/pcmcia/libpcmcia.o
 .debug_abbrev  0x00000000      0x1bc drivers/pcmcia/libpcmcia.o
 .debug_line    0x00000000      0x2ce drivers/pcmcia/libpcmcia.o
 .debug_str     0x00000000      0x54b drivers/pcmcia/libpcmcia.o
 .text          0x00000000        0x0 drivers/rtc/librtc.o
 .data          0x00000000        0x0 drivers/rtc/librtc.o
 .bss           0x00000000        0x0 drivers/rtc/librtc.o
 .comment       0x00000000       0x31 drivers/rtc/librtc.o
 .note.GNU-stack
                0x00000000        0x0 drivers/rtc/librtc.o
 .ARM.attributes
                0x00000000       0x2d drivers/rtc/librtc.o
 .debug_aranges
                0x00000000       0x18 drivers/rtc/librtc.o
 .debug_info    0x00000000      0x323 drivers/rtc/librtc.o
 .debug_abbrev  0x00000000       0xde drivers/rtc/librtc.o
 .debug_line    0x00000000      0x167 drivers/rtc/librtc.o
 .debug_str     0x00000000      0x29b drivers/rtc/librtc.o
 .text          0x00000000        0x0 drivers/serial/libserial.o
 .text.serial_reinit_all
                0x00000000       0x2c drivers/serial/libserial.o
 .text.default_serial_puts
                0x00000000       0x30 drivers/serial/libserial.o
 .text.uart_zynq1_init
                0x00000000        0x8 drivers/serial/libserial.o
 .text.uart_zynq1_setbrg
                0x00000000        0x8 drivers/serial/libserial.o
 .text.uart_zynq1_tstc
                0x00000000       0x14 drivers/serial/libserial.o
 .text.uart_zynq1_putc
                0x00000000        0x8 drivers/serial/libserial.o
 .text.uart_zynq1_puts
                0x00000000       0x24 drivers/serial/libserial.o
 .text.uart_zynq1_getc
                0x00000000       0x18 drivers/serial/libserial.o
 .data          0x00000000        0x0 drivers/serial/libserial.o
 .data.uart_zynq_serial1_device
                0x00000000       0x30 drivers/serial/libserial.o
 .bss           0x00000000        0x0 drivers/serial/libserial.o
 .text          0x00000000        0x0 drivers/spi/libspi.o
 .text.spi_cs_is_valid
                0x00000000       0x14 drivers/spi/libspi.o
 .text.spi_cs_activate
                0x00000000        0x4 drivers/spi/libspi.o
 .text.spi_cs_deactivate
                0x00000000        0x4 drivers/spi/libspi.o
 .data          0x00000000        0x0 drivers/spi/libspi.o
 .bss           0x00000000        0x0 drivers/spi/libspi.o
 .text          0x00000000        0x0 fs/ext4/libext4fs.o
 .data          0x00000000        0x0 fs/ext4/libext4fs.o
 .bss           0x00000000        0x0 fs/ext4/libext4fs.o
 .bss.ext4fs_symlinknest
                0x00000000        0x4 fs/ext4/libext4fs.o
 .bss.g_parent_inode
                0x00000000        0x4 fs/ext4/libext4fs.o
 .text          0x00000000        0x0 fs/fat/libfat.o
 .text.fat_register_device
                0x00000000       0x88 fs/fat/libfat.o
 .text.file_fat_read
                0x00000000       0x14 fs/fat/libfat.o
 .text.file_getfsname
                0x00000000       0x18 fs/fat/libfat.o
 .text.file_cd  0x00000000      0x1ec fs/fat/libfat.o
 .text.file_detectfs
                0x00000000       0x40 fs/fat/libfat.o
 .text.file_ls  0x00000000       0x90 fs/fat/libfat.o
 .text.file_read
                0x00000000       0xa0 fs/fat/libfat.o
 .rodata.filesystems
                0x00000000       0x18 fs/fat/libfat.o
 .data          0x00000000        0x0 fs/fat/libfat.o
 .data.file_cwd
                0x00000000      0x200 fs/fat/libfat.o
 .data.current_filesystem
                0x00000000        0x4 fs/fat/libfat.o
 .bss           0x00000000        0x0 fs/fat/libfat.o
 .text          0x00000000        0x0 fs/libfs.o
 .text.fs_write
                0x00000000       0x80 fs/libfs.o
 .text.do_save  0x00000000      0x12c fs/libfs.o
 .data          0x00000000        0x0 fs/libfs.o
 .bss           0x00000000        0x0 fs/libfs.o
 .text          0x00000000        0x0 lib/libfdt/libfdt.o
 .text.fdt_create_empty_tree
                0x00000000       0x74 lib/libfdt/libfdt.o
 .text.fdt_getprop_by_offset
                0x00000000       0x48 lib/libfdt/libfdt.o
 .text.fdt_get_phandle
                0x00000000       0x70 lib/libfdt/libfdt.o
 .text.fdt_get_alias
                0x00000000       0x28 lib/libfdt/libfdt.o
 .text.fdt_get_path
                0x00000000      0x138 lib/libfdt/libfdt.o
 .text.fdt_parent_offset
                0x00000000       0x30 lib/libfdt/libfdt.o
 .text.fdt_node_offset_by_prop_value
                0x00000000       0x9c lib/libfdt/libfdt.o
 .text.fdt_node_offset_by_phandle
                0x00000000       0x78 lib/libfdt/libfdt.o
 .text.fdt_stringlist_contains
                0x00000000       0x80 lib/libfdt/libfdt.o
 .text.fdt_node_check_compatible
                0x00000000       0x3c lib/libfdt/libfdt.o
 .text.fdt_node_offset_by_compatible
                0x00000000       0x7c lib/libfdt/libfdt.o
 .text.fdt_set_name
                0x00000000       0x8c lib/libfdt/libfdt.o
 .text.fdt_appendprop
                0x00000000       0xdc lib/libfdt/libfdt.o
 .text.fdt_pack
                0x00000000       0x5c lib/libfdt/libfdt.o
 .text._fdt_sw_check_header
                0x00000000       0x20 lib/libfdt/libfdt.o
 .text._fdt_grab_space
                0x00000000       0x58 lib/libfdt/libfdt.o
 .text.fdt_create
                0x00000000       0x60 lib/libfdt/libfdt.o
 .text.fdt_add_reservemap_entry
                0x00000000       0x8c lib/libfdt/libfdt.o
 .text.fdt_finish_reservemap
                0x00000000       0x18 lib/libfdt/libfdt.o
 .text.fdt_begin_node
                0x00000000       0x68 lib/libfdt/libfdt.o
 .text.fdt_end_node
                0x00000000       0x38 lib/libfdt/libfdt.o
 .text.fdt_property
                0x00000000      0x110 lib/libfdt/libfdt.o
 .text.fdt_finish
                0x00000000      0x104 lib/libfdt/libfdt.o
 .text.fdt_setprop_inplace
                0x00000000       0x44 lib/libfdt/libfdt.o
 .text.fdt_nop_property
                0x00000000       0x3c lib/libfdt/libfdt.o
 .text.fdt_nop_node
                0x00000000       0x50 lib/libfdt/libfdt.o
 .text.fdt_find_regions
                0x00000000      0x3ac lib/libfdt/libfdt.o
 .data          0x00000000        0x0 lib/libfdt/libfdt.o
 .bss           0x00000000        0x0 lib/libfdt/libfdt.o
 .text          0x00000000        0x0 lib/libgeneric.o
 .text.crc32_wd_buf
                0x00000000       0x3c lib/libgeneric.o
 .text.crc7     0x00000000       0x28 lib/libgeneric.o
 .text.display_options
                0x00000000       0x20 lib/libgeneric.o
 .text.hmatch_r
                0x00000000       0xa0 lib/libgeneric.o
 .text.initcall_run_list
                0x00000000       0x30 lib/libgeneric.o
 .text.ldiv     0x00000000       0x50 lib/libgeneric.o
 .text.lmb_dump_all
                0x00000000        0x4 lib/libgeneric.o
 .text.lmb_is_reserved
                0x00000000       0x50 lib/libgeneric.o
 .text.__arch_lmb_reserve
                0x00000000        0x4 lib/libgeneric.o
 .text.md5      0x00000000       0x68 lib/libgeneric.o
 .text.strcmp_compar
                0x00000000        0xc lib/libgeneric.o
 .text.sha1_csum
                0x00000000       0x40 lib/libgeneric.o
 .text.sha1_hmac
                0x00000000      0x128 lib/libgeneric.o
 .text.sha1_self_test
                0x00000000        0x8 lib/libgeneric.o
 .text.strncasecmp
                0x00000000       0x84 lib/libgeneric.o
 .text.strcasecmp
                0x00000000        0x8 lib/libgeneric.o
 .text.strrchr  0x00000000       0x3c lib/libgeneric.o
 .text.strspn   0x00000000       0x48 lib/libgeneric.o
 .text.strtok   0x00000000       0x7c lib/libgeneric.o
 .text.strsep   0x00000000       0x34 lib/libgeneric.o
 .text.strswab  0x00000000       0x4c lib/libgeneric.o
 .text.bcopy    0x00000000       0x24 lib/libgeneric.o
 .text.memscan  0x00000000       0x2c lib/libgeneric.o
 .text.memchr_inv
                0x00000000      0x124 lib/libgeneric.o
 .text.strmhz   0x00000000       0x6c lib/libgeneric.o
 .text.mdelay   0x00000000       0x24 lib/libgeneric.o
 .text.ustrtoul
                0x00000000       0x70 lib/libgeneric.o
 .text.ustrtoull
                0x00000000       0x88 lib/libgeneric.o
 .text.__assert_fail
                0x00000000       0x14 lib/libgeneric.o
 .text.print_grouped_ull
                0x00000000       0x88 lib/libgeneric.o
 .rodata.crc7_syndrome_table
                0x00000000      0x100 lib/libgeneric.o
 .data          0x00000000        0x0 lib/libgeneric.o
 .bss           0x00000000        0x0 lib/libgeneric.o
 .bss.___strtok
                0x00000000        0x4 lib/libgeneric.o
 .text          0x00000000        0x0 lib/zlib/libz.o
 .text.inflateInit_
                0x00000000       0x14 lib/zlib/libz.o
 .rodata.z_errmsg
                0x00000000       0x28 lib/zlib/libz.o
 .data          0x00000000        0x0 lib/zlib/libz.o
 .bss           0x00000000        0x0 lib/zlib/libz.o
 .text          0x00000000        0x0 net/libnet.o
 .text.eth_get_dev_by_name
                0x00000000       0x88 net/libnet.o
 .text.eth_unregister
                0x00000000       0xa4 net/libnet.o
 .text.net_get_udp_handler
                0x00000000       0x10 net/libnet.o
 .text.VLAN_to_string
                0x00000000       0x4c net/libnet.o
 .rodata.__FUNCTION__.7309
                0x00000000       0x14 net/libnet.o
 .data          0x00000000        0x0 net/libnet.o
 .data.TftpRRQTimeoutMSecs
                0x00000000        0x4 net/libnet.o
 .bss           0x00000000        0x0 net/libnet.o
 .text          0x00000000        0x0 board/xilinx/zynq/libzynq.o
 .text.board_late_init
                0x00000000       0x9c board/xilinx/zynq/libzynq.o
 .data          0x00000000        0x0 board/xilinx/zynq/libzynq.o
 .bss           0x00000000        0x0 board/xilinx/zynq/libzynq.o
 .text          0x00000000        0x0 /home/xyin/Embedded_System_Lab/project_1_2_2/software/build/linux/u-boot/u-boot-plnx/arch/arm/lib/eabi_compat.o
 .data          0x00000000        0x0 /home/xyin/Embedded_System_Lab/project_1_2_2/software/build/linux/u-boot/u-boot-plnx/arch/arm/lib/eabi_compat.o
 .bss           0x00000000        0x0 /home/xyin/Embedded_System_Lab/project_1_2_2/software/build/linux/u-boot/u-boot-plnx/arch/arm/lib/eabi_compat.o
 .data          0x00000000        0x0 /opt/PetaLinux/petalinux-v2013.10-final/tools/linux-i386/arm-xilinx-linux-gnueabi/bin/../lib/gcc/arm-xilinx-linux-gnueabi/4.7.3/libgcc.a(_udivsi3.o)
 .bss           0x00000000        0x0 /opt/PetaLinux/petalinux-v2013.10-final/tools/linux-i386/arm-xilinx-linux-gnueabi/bin/../lib/gcc/arm-xilinx-linux-gnueabi/4.7.3/libgcc.a(_udivsi3.o)
 .data          0x00000000        0x0 /opt/PetaLinux/petalinux-v2013.10-final/tools/linux-i386/arm-xilinx-linux-gnueabi/bin/../lib/gcc/arm-xilinx-linux-gnueabi/4.7.3/libgcc.a(_divsi3.o)
 .bss           0x00000000        0x0 /opt/PetaLinux/petalinux-v2013.10-final/tools/linux-i386/arm-xilinx-linux-gnueabi/bin/../lib/gcc/arm-xilinx-linux-gnueabi/4.7.3/libgcc.a(_divsi3.o)
 .data          0x00000000        0x0 /opt/PetaLinux/petalinux-v2013.10-final/tools/linux-i386/arm-xilinx-linux-gnueabi/bin/../lib/gcc/arm-xilinx-linux-gnueabi/4.7.3/libgcc.a(_lshrdi3.o)
 .bss           0x00000000        0x0 /opt/PetaLinux/petalinux-v2013.10-final/tools/linux-i386/arm-xilinx-linux-gnueabi/bin/../lib/gcc/arm-xilinx-linux-gnueabi/4.7.3/libgcc.a(_lshrdi3.o)
 .data          0x00000000        0x0 /opt/PetaLinux/petalinux-v2013.10-final/tools/linux-i386/arm-xilinx-linux-gnueabi/bin/../lib/gcc/arm-xilinx-linux-gnueabi/4.7.3/libgcc.a(_ashldi3.o)
 .bss           0x00000000        0x0 /opt/PetaLinux/petalinux-v2013.10-final/tools/linux-i386/arm-xilinx-linux-gnueabi/bin/../lib/gcc/arm-xilinx-linux-gnueabi/4.7.3/libgcc.a(_ashldi3.o)
 .data          0x00000000        0x0 /opt/PetaLinux/petalinux-v2013.10-final/tools/linux-i386/arm-xilinx-linux-gnueabi/bin/../lib/gcc/arm-xilinx-linux-gnueabi/4.7.3/libgcc.a(_aeabi_uldivmod.o)
 .bss           0x00000000        0x0 /opt/PetaLinux/petalinux-v2013.10-final/tools/linux-i386/arm-xilinx-linux-gnueabi/bin/../lib/gcc/arm-xilinx-linux-gnueabi/4.7.3/libgcc.a(_aeabi_uldivmod.o)
 .data          0x00000000        0x0 /opt/PetaLinux/petalinux-v2013.10-final/tools/linux-i386/arm-xilinx-linux-gnueabi/bin/../lib/gcc/arm-xilinx-linux-gnueabi/4.7.3/libgcc.a(_dvmd_lnx.o)
 .bss           0x00000000        0x0 /opt/PetaLinux/petalinux-v2013.10-final/tools/linux-i386/arm-xilinx-linux-gnueabi/bin/../lib/gcc/arm-xilinx-linux-gnueabi/4.7.3/libgcc.a(_dvmd_lnx.o)
 .data          0x00000000        0x0 /opt/PetaLinux/petalinux-v2013.10-final/tools/linux-i386/arm-xilinx-linux-gnueabi/bin/../lib/gcc/arm-xilinx-linux-gnueabi/4.7.3/libgcc.a(bpabi.o)
 .bss           0x00000000        0x0 /opt/PetaLinux/petalinux-v2013.10-final/tools/linux-i386/arm-xilinx-linux-gnueabi/bin/../lib/gcc/arm-xilinx-linux-gnueabi/4.7.3/libgcc.a(bpabi.o)
 .ARM.exidx     0x00000000       0x10 /opt/PetaLinux/petalinux-v2013.10-final/tools/linux-i386/arm-xilinx-linux-gnueabi/bin/../lib/gcc/arm-xilinx-linux-gnueabi/4.7.3/libgcc.a(bpabi.o)
 .data          0x00000000        0x0 /opt/PetaLinux/petalinux-v2013.10-final/tools/linux-i386/arm-xilinx-linux-gnueabi/bin/../lib/gcc/arm-xilinx-linux-gnueabi/4.7.3/libgcc.a(_divdi3.o)
 .bss           0x00000000        0x0 /opt/PetaLinux/petalinux-v2013.10-final/tools/linux-i386/arm-xilinx-linux-gnueabi/bin/../lib/gcc/arm-xilinx-linux-gnueabi/4.7.3/libgcc.a(_divdi3.o)
 .ARM.extab     0x00000000        0x0 /opt/PetaLinux/petalinux-v2013.10-final/tools/linux-i386/arm-xilinx-linux-gnueabi/bin/../lib/gcc/arm-xilinx-linux-gnueabi/4.7.3/libgcc.a(_divdi3.o)
 .ARM.exidx     0x00000000        0x8 /opt/PetaLinux/petalinux-v2013.10-final/tools/linux-i386/arm-xilinx-linux-gnueabi/bin/../lib/gcc/arm-xilinx-linux-gnueabi/4.7.3/libgcc.a(_divdi3.o)
 .data          0x00000000        0x0 /opt/PetaLinux/petalinux-v2013.10-final/tools/linux-i386/arm-xilinx-linux-gnueabi/bin/../lib/gcc/arm-xilinx-linux-gnueabi/4.7.3/libgcc.a(_udivdi3.o)
 .bss           0x00000000        0x0 /opt/PetaLinux/petalinux-v2013.10-final/tools/linux-i386/arm-xilinx-linux-gnueabi/bin/../lib/gcc/arm-xilinx-linux-gnueabi/4.7.3/libgcc.a(_udivdi3.o)
 .ARM.extab     0x00000000        0x0 /opt/PetaLinux/petalinux-v2013.10-final/tools/linux-i386/arm-xilinx-linux-gnueabi/bin/../lib/gcc/arm-xilinx-linux-gnueabi/4.7.3/libgcc.a(_udivdi3.o)
 .ARM.exidx     0x00000000        0x8 /opt/PetaLinux/petalinux-v2013.10-final/tools/linux-i386/arm-xilinx-linux-gnueabi/bin/../lib/gcc/arm-xilinx-linux-gnueabi/4.7.3/libgcc.a(_udivdi3.o)

Memory Configuration

Name             Origin             Length             Attributes
*default*        0x00000000         0xffffffff

Linker script and memory map

                0x00000000                . = 0x0
                0x00000000                . = ALIGN (0x4)

.text           0x1fc00000    0x29bdc
 *(.__image_copy_start)
 .__image_copy_start
                0x1fc00000        0x0 arch/arm/lib/libarm.o
                0x1fc00000                __image_copy_start
 arch/arm/cpu/armv7/start.o(.text*)
 .text          0x1fc00000      0x3a0 arch/arm/cpu/armv7/start.o
                0x1fc00000                _start
                0x1fc00040                _end_vect
                0x1fc00040                _TEXT_BASE
                0x1fc00044                _bss_start_ofs
                0x1fc00048                _bss_end_ofs
                0x1fc0004c                _end_ofs
                0x1fc00050                IRQ_STACK_START_IN
                0x1fc00094                c_runtime_cpu_setup
                0x1fc000ac                save_boot_params
                0x1fc000b0                cpu_init_cp15
                0x1fc000e8                cpu_init_crit
 *(.text*)
 .text.v7_maint_dcache_all
                0x1fc003a0       0xd0 arch/arm/cpu/armv7/libarmv7.o
 .text.v7_dcache_inval_range
                0x1fc00470       0x80 arch/arm/cpu/armv7/libarmv7.o
 .text.invalidate_icache_all
                0x1fc004f0       0x18 arch/arm/cpu/armv7/libarmv7.o
                0x1fc004f0                invalidate_icache_all
 .text.__v7_outer_cache_enable
                0x1fc00508        0x4 arch/arm/cpu/armv7/libarmv7.o
                0x1fc00508                __v7_outer_cache_enable
                0x1fc00508                v7_outer_cache_enable
 .text.__v7_outer_cache_disable
                0x1fc0050c        0x4 arch/arm/cpu/armv7/libarmv7.o
                0x1fc0050c                v7_outer_cache_disable
                0x1fc0050c                __v7_outer_cache_disable
 .text.__v7_outer_cache_flush_all
                0x1fc00510        0x4 arch/arm/cpu/armv7/libarmv7.o
                0x1fc00510                __v7_outer_cache_flush_all
                0x1fc00510                v7_outer_cache_flush_all
 .text.flush_dcache_all
                0x1fc00514       0x14 arch/arm/cpu/armv7/libarmv7.o
                0x1fc00514                flush_dcache_all
 .text.__v7_outer_cache_inval_all
                0x1fc00528        0x4 arch/arm/cpu/armv7/libarmv7.o
                0x1fc00528                v7_outer_cache_inval_all
                0x1fc00528                __v7_outer_cache_inval_all
 .text.invalidate_dcache_all
                0x1fc0052c       0x14 arch/arm/cpu/armv7/libarmv7.o
                0x1fc0052c                invalidate_dcache_all
 .text.arm_init_before_mmu
                0x1fc00540       0x28 arch/arm/cpu/armv7/libarmv7.o
                0x1fc00540                arm_init_before_mmu
 .text.__v7_outer_cache_flush_range
                0x1fc00568        0x4 arch/arm/cpu/armv7/libarmv7.o
                0x1fc00568                v7_outer_cache_flush_range
                0x1fc00568                __v7_outer_cache_flush_range
 .text.flush_dcache_range
                0x1fc0056c       0x3c arch/arm/cpu/armv7/libarmv7.o
                0x1fc0056c                flush_dcache_range
 .text.flush_cache
                0x1fc005a8        0x8 arch/arm/cpu/armv7/libarmv7.o
                0x1fc005a8                flush_cache
 .text.mmu_page_table_flush
                0x1fc005b0       0x24 arch/arm/cpu/armv7/libarmv7.o
                0x1fc005b0                mmu_page_table_flush
 .text.__v7_outer_cache_inval_range
                0x1fc005d4        0x4 arch/arm/cpu/armv7/libarmv7.o
                0x1fc005d4                __v7_outer_cache_inval_range
                0x1fc005d4                v7_outer_cache_inval_range
 .text.invalidate_dcache_range
                0x1fc005d8       0x3c arch/arm/cpu/armv7/libarmv7.o
                0x1fc005d8                invalidate_dcache_range
 .text.cpu_cache_initialization
                0x1fc00614        0x4 arch/arm/cpu/armv7/libarmv7.o
                0x1fc00614                cpu_cache_initialization
 .text.cleanup_before_linux
                0x1fc00618       0x28 arch/arm/cpu/armv7/libarmv7.o
                0x1fc00618                cleanup_before_linux
 .text          0x1fc00640       0x24 arch/arm/cpu/armv7/zynq/libzynq.o
                0x1fc00640                lowlevel_init
 .text.timer_init
                0x1fc00664       0x44 arch/arm/cpu/armv7/zynq/libzynq.o
                0x1fc00664                timer_init
 .text.get_timer_masked
                0x1fc006a8       0x50 arch/arm/cpu/armv7/zynq/libzynq.o
                0x1fc006a8                get_timer_masked
 .text.__udelay
                0x1fc006f8       0x68 arch/arm/cpu/armv7/zynq/libzynq.o
                0x1fc006f8                __udelay
 .text.get_timer
                0x1fc00760       0x14 arch/arm/cpu/armv7/zynq/libzynq.o
                0x1fc00760                get_timer
 .text.get_ticks
                0x1fc00774       0x10 arch/arm/cpu/armv7/zynq/libzynq.o
                0x1fc00774                get_ticks
 .text.get_tbclk
                0x1fc00784        0x8 arch/arm/cpu/armv7/zynq/libzynq.o
                0x1fc00784                get_tbclk
 .text.arch_cpu_init
                0x1fc0078c       0x5c arch/arm/cpu/armv7/zynq/libzynq.o
                0x1fc0078c                arch_cpu_init
 .text.reset_cpu
                0x1fc007e8        0xc arch/arm/cpu/armv7/zynq/libzynq.o
                0x1fc007e8                reset_cpu
 .text.enable_caches
                0x1fc007f4        0x4 arch/arm/cpu/armv7/zynq/libzynq.o
                0x1fc007f4                enable_caches
 .text.zynq_ddrc_init
                0x1fc007f8       0x64 arch/arm/cpu/armv7/zynq/libzynq.o
                0x1fc007f8                zynq_ddrc_init
 .text.zynq_slcr_lock
                0x1fc0085c       0x2c arch/arm/cpu/armv7/zynq/libzynq.o
                0x1fc0085c                zynq_slcr_lock
 .text.zynq_slcr_unlock
                0x1fc00888       0x2c arch/arm/cpu/armv7/zynq/libzynq.o
                0x1fc00888                zynq_slcr_unlock
 .text.zynq_slcr_cpu_reset
                0x1fc008b4       0x24 arch/arm/cpu/armv7/zynq/libzynq.o
                0x1fc008b4                zynq_slcr_cpu_reset
 .text.zynq_slcr_gem_clk_setup
                0x1fc008d8       0x64 arch/arm/cpu/armv7/zynq/libzynq.o
                0x1fc008d8                zynq_slcr_gem_clk_setup
 .text.zynq_slcr_get_lqspi_clk_ctrl
                0x1fc0093c        0xc arch/arm/cpu/armv7/zynq/libzynq.o
                0x1fc0093c                zynq_slcr_get_lqspi_clk_ctrl
 .text.zynq_slcr_devcfg_disable
                0x1fc00948       0x24 arch/arm/cpu/armv7/zynq/libzynq.o
                0x1fc00948                zynq_slcr_devcfg_disable
 .text.zynq_slcr_devcfg_enable
                0x1fc0096c       0x24 arch/arm/cpu/armv7/zynq/libzynq.o
                0x1fc0096c                zynq_slcr_devcfg_enable
 .text.zynq_slcr_get_idcode
                0x1fc00990       0x10 arch/arm/cpu/armv7/zynq/libzynq.o
                0x1fc00990                zynq_slcr_get_idcode
 .text.zynq_slcr_get_mio_pin_status
                0x1fc009a0       0x90 arch/arm/cpu/armv7/zynq/libzynq.o
                0x1fc009a0                zynq_slcr_get_mio_pin_status
 .text          0x1fc00a30       0xe8 arch/arm/lib/libarm.o
                0x1fc00a30                _main
                0x1fc00ab4                relocate_code
 .text.mark_bootstage
                0x1fc00b18        0x8 arch/arm/lib/libarm.o
 .text.display_banner
                0x1fc00b20       0x20 arch/arm/lib/libarm.o
 .text.init_baudrate
                0x1fc00b40       0x2c arch/arm/lib/libarm.o
 .text.__coloured_LED_init
                0x1fc00b6c        0x4 arch/arm/lib/libarm.o
                0x1fc00b6c                coloured_LED_init
                0x1fc00b6c                __coloured_LED_init
 .text.__red_led_on
                0x1fc00b70        0x4 arch/arm/lib/libarm.o
                0x1fc00b70                __red_led_on
                0x1fc00b70                red_led_on
 .text.__dram_init_banksize
                0x1fc00b74       0x1c arch/arm/lib/libarm.o
                0x1fc00b74                __dram_init_banksize
                0x1fc00b74                dram_init_banksize
 .text.__power_init_board
                0x1fc00b90        0x8 arch/arm/lib/libarm.o
                0x1fc00b90                __power_init_board
                0x1fc00b90                power_init_board
 .text.board_init_f
                0x1fc00b98      0x118 arch/arm/lib/libarm.o
                0x1fc00b98                board_init_f
 .text.board_init_r
                0x1fc00cb0       0xb0 arch/arm/lib/libarm.o
                0x1fc00cb0                board_init_r
 .text.arch_fixup_memory_node
                0x1fc00d60        0x8 arch/arm/lib/libarm.o
                0x1fc00d60                arch_fixup_memory_node
 .text.boot_jump_linux
                0x1fc00d68       0xac arch/arm/lib/libarm.o
 .text.boot_prep_linux
                0x1fc00e14       0x40 arch/arm/lib/libarm.o
 .text.arch_lmb_reserve
                0x1fc00e54       0x24 arch/arm/lib/libarm.o
                0x1fc00e54                arch_lmb_reserve
 .text.do_bootm_linux
                0x1fc00e78       0x60 arch/arm/lib/libarm.o
                0x1fc00e78                do_bootm_linux
 .text.interrupt_init
                0x1fc00ed8       0x1c arch/arm/lib/libarm.o
                0x1fc00ed8                interrupt_init
 .text.enable_interrupts
                0x1fc00ef4        0x4 arch/arm/lib/libarm.o
                0x1fc00ef4                enable_interrupts
 .text.disable_interrupts
                0x1fc00ef8        0x8 arch/arm/lib/libarm.o
                0x1fc00ef8                disable_interrupts
 .text.bad_mode
                0x1fc00f00       0x10 arch/arm/lib/libarm.o
                0x1fc00f00                bad_mode
 .text.show_regs
                0x1fc00f10      0x13c arch/arm/lib/libarm.o
                0x1fc00f10                show_regs
 .text.do_undefined_instruction
                0x1fc0104c       0x20 arch/arm/lib/libarm.o
                0x1fc0104c                do_undefined_instruction
 .text.do_software_interrupt
                0x1fc0106c       0x20 arch/arm/lib/libarm.o
                0x1fc0106c                do_software_interrupt
 .text.do_prefetch_abort
                0x1fc0108c       0x20 arch/arm/lib/libarm.o
                0x1fc0108c                do_prefetch_abort
 .text.do_data_abort
                0x1fc010ac       0x20 arch/arm/lib/libarm.o
                0x1fc010ac                do_data_abort
 .text.do_not_used
                0x1fc010cc       0x20 arch/arm/lib/libarm.o
                0x1fc010cc                do_not_used
 .text.do_fiq   0x1fc010ec       0x20 arch/arm/lib/libarm.o
                0x1fc010ec                do_fiq
 .text.do_irq   0x1fc0110c       0x20 arch/arm/lib/libarm.o
                0x1fc0110c                do_irq
 .text.do_reset
                0x1fc0112c       0x2c arch/arm/lib/libarm.o
                0x1fc0112c                do_reset
 .text.cp_delay
                0x1fc01158       0x30 arch/arm/lib/libarm.o
 .text.arm_init_domains
                0x1fc01188        0x4 arch/arm/lib/libarm.o
                0x1fc01188                arm_init_domains
 .text.set_section_dcache
                0x1fc0118c       0x14 arch/arm/lib/libarm.o
                0x1fc0118c                set_section_dcache
 .text.mmu_set_region_dcache_behaviour
                0x1fc011a0       0x50 arch/arm/lib/libarm.o
                0x1fc011a0                mmu_set_region_dcache_behaviour
 .text.dram_bank_mmu_setup
                0x1fc011f0       0x48 arch/arm/lib/libarm.o
                0x1fc011f0                dram_bank_mmu_setup
 .text.icache_enable
                0x1fc01238       0x18 arch/arm/lib/libarm.o
                0x1fc01238                icache_enable
 .text.icache_disable
                0x1fc01250       0x1c arch/arm/lib/libarm.o
                0x1fc01250                icache_disable
 .text.icache_status
                0x1fc0126c        0xc arch/arm/lib/libarm.o
                0x1fc0126c                icache_status
 .text.dcache_enable
                0x1fc01278       0x6c arch/arm/lib/libarm.o
                0x1fc01278                dcache_enable
 .text.dcache_disable
                0x1fc012e4       0x28 arch/arm/lib/libarm.o
                0x1fc012e4                dcache_disable
 .text.dcache_status
                0x1fc0130c        0xc arch/arm/lib/libarm.o
                0x1fc0130c                dcache_status
 .text.print_num
                0x1fc01318       0x18 common/libcommon.o
 .text.do_bdinfo
                0x1fc01330      0x180 common/libcommon.o
                0x1fc01330                do_bdinfo
 .text.do_go_exec
                0x1fc014b0       0x18 common/libcommon.o
                0x1fc014b0                do_go_exec
 .text.do_go    0x1fc014c8       0x70 common/libcommon.o
 .text.image_info
                0x1fc01538      0x118 common/libcommon.o
 .text.do_bootd
                0x1fc01650       0x24 common/libcommon.o
                0x1fc01650                do_bootd
 .text.copy_args
                0x1fc01674       0x4c common/libcommon.o
 .text.do_bootm_rtems
                0x1fc016c0       0x58 common/libcommon.o
 .text.do_iminfo
                0x1fc01718       0x60 common/libcommon.o
 .text.do_bootm_plan9
                0x1fc01778       0xbc common/libcommon.o
 .text.do_bootm_netbsd
                0x1fc01834      0x10c common/libcommon.o
 .text.__arch_preboot_os
                0x1fc01940        0x4 common/libcommon.o
                0x1fc01940                arch_preboot_os
 .text.do_bootm_states.isra.15.constprop.16
                0x1fc01944      0xa28 common/libcommon.o
 .text.do_bootm
                0x1fc0236c       0xd8 common/libcommon.o
                0x1fc0236c                do_bootm
 .text.bootm_maybe_autostart
                0x1fc02444       0x74 common/libcommon.o
                0x1fc02444                bootm_maybe_autostart
 .text.parse_argv
                0x1fc024b8       0x64 common/libcommon.o
 .text.do_icache
                0x1fc0251c       0x8c common/libcommon.o
                0x1fc0251c                do_icache
 .text.do_dcache
                0x1fc025a8       0x8c common/libcommon.o
                0x1fc025a8                do_dcache
 .text.do_coninfo
                0x1fc02634       0xb8 common/libcommon.o
 .text.do_echo  0x1fc026ec       0xb0 common/libcommon.o
 .text.do_exit  0x1fc0279c       0x34 common/libcommon.o
 .text.do_ext2load
                0x1fc027d0       0x18 common/libcommon.o
                0x1fc027d0                do_ext2load
 .text.do_ext2ls
                0x1fc027e8       0x14 common/libcommon.o
                0x1fc027e8                do_ext2ls
 .text.do_fat_fsinfo
                0x1fc027fc       0x90 common/libcommon.o
 .text.do_fat_ls
                0x1fc0288c       0x14 common/libcommon.o
 .text.do_fat_fsload
                0x1fc028a0       0x18 common/libcommon.o
                0x1fc028a0                do_fat_fsload
 .text.fdt_valid
                0x1fc028b8       0xc0 common/libcommon.o
 .text.is_printable_string
                0x1fc02978       0x90 common/libcommon.o
 .text.print_data
                0x1fc02a08      0x170 common/libcommon.o
 .text.set_working_fdt_addr
                0x1fc02b78       0x1c common/libcommon.o
                0x1fc02b78                set_working_fdt_addr
 .text.do_fdt   0x1fc02b94      0xeb4 common/libcommon.o
 .text.do_fpga  0x1fc03a48      0x3b0 common/libcommon.o
                0x1fc03a48                do_fpga
 .text.do_help  0x1fc03df8       0x44 common/libcommon.o
 .text.evalexp  0x1fc03e3c       0x78 common/libcommon.o
 .text.binary_test
                0x1fc03eb4      0x1cc common/libcommon.o
 .text.do_itest
                0x1fc04080       0x98 common/libcommon.o
 .text.bin_data_init
                0x1fc04118       0x2c common/libcommon.o
 .text.k_data_restore
                0x1fc04144       0x4c common/libcommon.o
 .text.load_serial_ymodem
                0x1fc04190       0xe4 common/libcommon.o
 .text.getcxmodem
                0x1fc04274       0x20 common/libcommon.o
 .text.write_record
                0x1fc04294       0x30 common/libcommon.o
 .text.do_save_serial
                0x1fc042c4      0x1a0 common/libcommon.o
                0x1fc042c4                do_save_serial
 .text.bin_data_char
                0x1fc04464       0x28 common/libcommon.o
 .text.chk1.constprop.1
                0x1fc0448c       0x30 common/libcommon.o
 .text.s1_sendpacket.constprop.2
                0x1fc044bc       0x50 common/libcommon.o
 .text.load_serial
                0x1fc0450c      0x1f8 common/libcommon.o
 .text.do_load_serial
                0x1fc04704       0xe0 common/libcommon.o
 .text.do_load_serial_bin
                0x1fc047e4      0x7c0 common/libcommon.o
 .text.do_mem_loop
                0x1fc04fa4       0xfc common/libcommon.o
 .text.do_mem_mw
                0x1fc050a0       0xc4 common/libcommon.o
 .text.do_mem_base
                0x1fc05164       0x40 common/libcommon.o
 .text.do_mem_cmp
                0x1fc051a4      0x158 common/libcommon.o
 .text.do_mem_crc
                0x1fc052fc       0x48 common/libcommon.o
 .text.do_mem_cp
                0x1fc05344       0xd8 common/libcommon.o
 .text.do_mem_md
                0x1fc0541c       0xec common/libcommon.o
 .text.mod_mem.isra.2
                0x1fc05508      0x178 common/libcommon.o
 .text.do_mem_nm
                0x1fc05680        0x8 common/libcommon.o
 .text.do_mem_mm
                0x1fc05688        0x8 common/libcommon.o
 .text.do_sleep
                0x1fc05690       0x70 common/libcommon.o
 .text.do_mmcops
                0x1fc05700      0x488 common/libcommon.o
 .text.do_mmcinfo
                0x1fc05b88      0x17c common/libcommon.o
 .text.netboot_common
                0x1fc05d04      0x27c common/libcommon.o
 .text.do_dhcp  0x1fc05f80        0xc common/libcommon.o
 .text.do_bootp
                0x1fc05f8c        0xc common/libcommon.o
 .text.do_tftpb
                0x1fc05f98        0xc common/libcommon.o
                0x1fc05f98                do_tftpb
 .text.do_ping  0x1fc05fa4       0x74 common/libcommon.o
 .text.do_env_delete
                0x1fc06018       0xa8 common/libcommon.o
 .text.env_print
                0x1fc060c0       0xc8 common/libcommon.o
 .text.do_env_print
                0x1fc06188       0xc8 common/libcommon.o
 .text.do_env   0x1fc06250       0x5c common/libcommon.o
 .text.do_env_import
                0x1fc062ac      0x264 common/libcommon.o
 .text.do_env_default
                0x1fc06510       0xb4 common/libcommon.o
 .text.do_env_save
                0x1fc065c4       0x2c common/libcommon.o
 .text._do_env_set.isra.0
                0x1fc065f0      0x1d8 common/libcommon.o
 .text.do_env_set
                0x1fc067c8       0x1c common/libcommon.o
 .text.do_env_ask
                0x1fc067e4      0x14c common/libcommon.o
                0x1fc067e4                do_env_ask
 .text.get_env_id
                0x1fc06930       0x10 common/libcommon.o
                0x1fc06930                get_env_id
 .text.setenv   0x1fc06940       0x60 common/libcommon.o
                0x1fc06940                setenv
 .text.setenv_ulong
                0x1fc069a0       0x20 common/libcommon.o
                0x1fc069a0                setenv_ulong
 .text.setenv_hex
                0x1fc069c0       0x34 common/libcommon.o
                0x1fc069c0                setenv_hex
 .text.do_env_export
                0x1fc069f4      0x26c common/libcommon.o
 .text.envmatch
                0x1fc06c60       0x6c common/libcommon.o
                0x1fc06c60                envmatch
 .text.getenv_f
                0x1fc06ccc       0xd0 common/libcommon.o
                0x1fc06ccc                getenv_f
 .text.getenv   0x1fc06d9c       0x78 common/libcommon.o
                0x1fc06d9c                getenv
 .text.do_env_edit
                0x1fc06e14       0x7c common/libcommon.o
 .text.getenv_ulong
                0x1fc06e90       0x30 common/libcommon.o
                0x1fc06e90                getenv_ulong
 .text.getenv_hex
                0x1fc06ec0       0x34 common/libcommon.o
                0x1fc06ec0                getenv_hex
 .text.bytes_per_second
                0x1fc06ef4       0x50 common/libcommon.o
 .text.do_spi_flash
                0x1fc06f44      0x744 common/libcommon.o
 .text.source   0x1fc07688      0x1b8 common/libcommon.o
                0x1fc07688                source
 .text.do_source
                0x1fc07840       0x6c common/libcommon.o
                0x1fc07840                do_source
 .text.do_spi   0x1fc078ac      0x268 common/libcommon.o
                0x1fc078ac                do_spi
 .text.do_false
                0x1fc07b14        0x8 common/libcommon.o
 .text.do_true  0x1fc07b1c        0x8 common/libcommon.o
 .text.do_test  0x1fc07b24      0x478 common/libcommon.o
 .text.do_version
                0x1fc07f9c       0x38 common/libcommon.o
 .text.do_imgextract
                0x1fc07fd4      0x398 common/libcommon.o
 .text.find_cmd_tbl
                0x1fc0836c       0xa4 common/libcommon.o
                0x1fc0836c                find_cmd_tbl
 .text.find_cmd
                0x1fc08410       0x28 common/libcommon.o
                0x1fc08410                find_cmd
 .text.cmd_usage
                0x1fc08438       0x5c common/libcommon.o
                0x1fc08438                cmd_usage
 .text._do_help
                0x1fc08494      0x184 common/libcommon.o
                0x1fc08494                _do_help
 .text.cmd_get_data_size
                0x1fc08618       0x50 common/libcommon.o
                0x1fc08618                cmd_get_data_size
 .text.cmd_process
                0x1fc08668       0xec common/libcommon.o
                0x1fc08668                cmd_process
 .text.console_setfile
                0x1fc08754       0xa0 common/libcommon.o
 .text.serial_printf
                0x1fc087f4       0x40 common/libcommon.o
                0x1fc087f4                serial_printf
 .text.fgetc    0x1fc08834       0x2c common/libcommon.o
                0x1fc08834                fgetc
 .text.ftstc    0x1fc08860       0x2c common/libcommon.o
                0x1fc08860                ftstc
 .text.fputc    0x1fc0888c       0x28 common/libcommon.o
                0x1fc0888c                fputc
 .text.getc     0x1fc088b4       0x24 common/libcommon.o
                0x1fc088b4                getc
 .text.tstc     0x1fc088d8       0x24 common/libcommon.o
                0x1fc088d8                tstc
 .text.putc     0x1fc088fc       0x28 common/libcommon.o
                0x1fc088fc                putc
 .text.puts     0x1fc08924       0x3c common/libcommon.o
                0x1fc08924                puts
 .text.printf   0x1fc08960       0x4c common/libcommon.o
                0x1fc08960                printf
 .text.vprintf  0x1fc089ac       0x40 common/libcommon.o
                0x1fc089ac                vprintf
 .text.ctrlc    0x1fc089ec       0x58 common/libcommon.o
                0x1fc089ec                ctrlc
 .text.had_ctrlc
                0x1fc08a44       0x10 common/libcommon.o
                0x1fc08a44                had_ctrlc
 .text.clear_ctrlc
                0x1fc08a54       0x14 common/libcommon.o
                0x1fc08a54                clear_ctrlc
 .text.search_device
                0x1fc08a68       0x30 common/libcommon.o
                0x1fc08a68                search_device
 .text.console_assign
                0x1fc08a98       0x48 common/libcommon.o
                0x1fc08a98                console_assign
 .text.on_console
                0x1fc08ae0       0xc4 common/libcommon.o
 .text.console_init_f
                0x1fc08ba4       0x10 common/libcommon.o
                0x1fc08ba4                console_init_f
 .text.stdio_print_current_devices
                0x1fc08bb4       0xb8 common/libcommon.o
                0x1fc08bb4                stdio_print_current_devices
 .text.console_init_r
                0x1fc08c6c      0x154 common/libcommon.o
                0x1fc08c6c                console_init_r
 .text.sbrk     0x1fc08dc0       0x70 common/libcommon.o
                0x1fc08dc0                sbrk
 .text.mem_malloc_init
                0x1fc08e30       0x34 common/libcommon.o
                0x1fc08e30                mem_malloc_init
 .text.malloc_trim
                0x1fc08e64       0xcc common/libcommon.o
                0x1fc08e64                malloc_trim
 .text.free     0x1fc08f30      0x228 common/libcommon.o
                0x1fc08f30                free
 .text.malloc   0x1fc09158      0x604 common/libcommon.o
                0x1fc09158                malloc
 .text.calloc   0x1fc0975c       0xd8 common/libcommon.o
                0x1fc0975c                calloc
 .text.memalign
                0x1fc09834      0x10c common/libcommon.o
                0x1fc09834                memalign
 .text.realloc  0x1fc09940      0x40c common/libcommon.o
                0x1fc09940                realloc
 .text.env_attr_walk
                0x1fc09d4c      0x120 common/libcommon.o
                0x1fc09d4c                env_attr_walk
 .text.env_attr_lookup
                0x1fc09e6c      0x190 common/libcommon.o
                0x1fc09e6c                env_attr_lookup
 .text.clear_callback
                0x1fc09ffc       0x10 common/libcommon.o
 .text.on_callbacks
                0x1fc0a00c       0x48 common/libcommon.o
 .text.set_callback
                0x1fc0a054       0xd8 common/libcommon.o
 .text.env_callback_init
                0x1fc0a12c       0xf0 common/libcommon.o
                0x1fc0a12c                env_callback_init
 .text.__env_get_char_spec
                0x1fc0a21c        0xc common/libcommon.o
                0x1fc0a21c                env_get_char_spec
 .text.env_get_addr
                0x1fc0a228       0x20 common/libcommon.o
                0x1fc0a228                env_get_addr
 .text.env_get_char_memory
                0x1fc0a248       0x10 common/libcommon.o
                0x1fc0a248                env_get_char_memory
 .text.env_get_char
                0x1fc0a258       0x30 common/libcommon.o
                0x1fc0a258                env_get_char
 .text.getenv_yesno
                0x1fc0a288       0x50 common/libcommon.o
                0x1fc0a288                getenv_yesno
 .text.getenv_default
                0x1fc0a2d8       0x30 common/libcommon.o
                0x1fc0a2d8                getenv_default
 .text.set_default_env
                0x1fc0a308       0xb8 common/libcommon.o
                0x1fc0a308                set_default_env
 .text.set_default_vars
                0x1fc0a3c0       0x34 common/libcommon.o
                0x1fc0a3c0                set_default_vars
 .text.env_import
                0x1fc0a3f4       0xdc common/libcommon.o
                0x1fc0a3f4                env_import
 .text.env_relocate
                0x1fc0a4d0       0x30 common/libcommon.o
                0x1fc0a4d0                env_relocate
 .text.skip_num
                0x1fc0a500       0x88 common/libcommon.o
 .text.clear_flags
                0x1fc0a588       0x10 common/libcommon.o
 .text.on_flags
                0x1fc0a598       0x48 common/libcommon.o
 .text.env_flags_parse_vartype
                0x1fc0a5e0       0x50 common/libcommon.o
                0x1fc0a5e0                env_flags_parse_vartype
 .text.env_flags_parse_varaccess
                0x1fc0a630       0x58 common/libcommon.o
                0x1fc0a630                env_flags_parse_varaccess
 .text.set_flags
                0x1fc0a688       0xac common/libcommon.o
 .text.env_flags_init
                0x1fc0a734       0xac common/libcommon.o
                0x1fc0a734                env_flags_init
 .text.env_flags_validate
                0x1fc0a7e0      0x318 common/libcommon.o
                0x1fc0a7e0                env_flags_validate
 .text.saveenv  0x1fc0aaf8      0x170 common/libcommon.o
                0x1fc0aaf8                saveenv
 .text.env_relocate_spec
                0x1fc0ac68       0xa8 common/libcommon.o
                0x1fc0ac68                env_relocate_spec
 .text.env_init
                0x1fc0ad10       0x1c common/libcommon.o
                0x1fc0ad10                env_init
 .text.dummy    0x1fc0ad2c        0x4 common/libcommon.o
 .text.get_version
                0x1fc0ad30        0x8 common/libcommon.o
                0x1fc0ad30                get_version
 .text.jumptable_init
                0x1fc0ad38      0x1c0 common/libcommon.o
                0x1fc0ad38                jumptable_init
 .text.get_cells_len
                0x1fc0aef8       0x3c common/libcommon.o
 .text.fdt_find_and_setprop
                0x1fc0af34       0x70 common/libcommon.o
                0x1fc0af34                fdt_find_and_setprop
 .text.fdt_initrd
                0x1fc0afa4      0x1bc common/libcommon.o
                0x1fc0afa4                fdt_initrd
 .text.fdt_chosen
                0x1fc0b160      0x108 common/libcommon.o
                0x1fc0b160                fdt_chosen
 .text.do_fixup_by_path
                0x1fc0b268       0x54 common/libcommon.o
                0x1fc0b268                do_fixup_by_path
 .text.fdt_fixup_memory_banks
                0x1fc0b2bc      0x210 common/libcommon.o
                0x1fc0b2bc                fdt_fixup_memory_banks
 .text.fdt_fixup_memory
                0x1fc0b4cc       0x20 common/libcommon.o
                0x1fc0b4cc                fdt_fixup_memory
 .text.fdt_fixup_ethernet
                0x1fc0b4ec      0x128 common/libcommon.o
                0x1fc0b4ec                fdt_fixup_ethernet
 .text.fdt_resize
                0x1fc0b614       0xd4 common/libcommon.o
                0x1fc0b614                fdt_resize
 .text.hash_command
                0x1fc0b6e8       0xa0 common/libcommon.o
                0x1fc0b6e8                hash_command
 .text.b_reset  0x1fc0b788       0x1c common/libcommon.o
 .text.static_get
                0x1fc0b7a4       0x1c common/libcommon.o
 .text.static_peek
                0x1fc0b7c0        0xc common/libcommon.o
 .text.file_peek
                0x1fc0b7cc        0xc common/libcommon.o
 .text.mapset   0x1fc0b7d8       0x24 common/libcommon.o
 .text.syntax_err
                0x1fc0b7fc        0xc common/libcommon.o
 .text.do_showvar
                0x1fc0b808       0xf4 common/libcommon.o
 .text.xmalloc  0x1fc0b8fc       0x20 common/libcommon.o
 .text.new_pipe
                0x1fc0b91c       0x28 common/libcommon.o
 .text.free_pipe_list
                0x1fc0b944       0xf4 common/libcommon.o
 .text.xrealloc
                0x1fc0ba38       0x20 common/libcommon.o
 .text.done_command
                0x1fc0ba58       0x88 common/libcommon.o
 .text.done_pipe
                0x1fc0bae0       0x4c common/libcommon.o
 .text.done_word
                0x1fc0bb2c      0x2b0 common/libcommon.o
 .text.is_assignment
                0x1fc0bddc       0x54 common/libcommon.o
 .text.file_get
                0x1fc0be30      0x1d0 common/libcommon.o
 .text.b_addchr
                0x1fc0c000       0x7c common/libcommon.o
 .text.b_addqchr
                0x1fc0c07c       0x50 common/libcommon.o
 .text.get_local_var
                0x1fc0c0cc       0x98 common/libcommon.o
                0x1fc0c0cc                get_local_var
 .text.set_local_var
                0x1fc0c164      0x1c0 common/libcommon.o
                0x1fc0c164                set_local_var
 .text.insert_var_value_sub
                0x1fc0c324      0x2b0 common/libcommon.o
 .text.parse_string_outer
                0x1fc0c5d4       0xf0 common/libcommon.o
                0x1fc0c5d4                parse_string_outer
 .text.run_list_real
                0x1fc0c6c4      0x7a4 common/libcommon.o
 .text.parse_stream_outer
                0x1fc0ce68      0x6cc common/libcommon.o
 .text.parse_file_outer
                0x1fc0d534       0x44 common/libcommon.o
                0x1fc0d534                parse_file_outer
 .text.u_boot_hush_start
                0x1fc0d578       0x54 common/libcommon.o
                0x1fc0d578                u_boot_hush_start
 .text.fdt_error
                0x1fc0d5cc       0x2c common/libcommon.o
 .text.boot_fdt_add_mem_rsv_regions
                0x1fc0d5f8       0x88 common/libcommon.o
                0x1fc0d5f8                boot_fdt_add_mem_rsv_regions
 .text.boot_relocate_fdt
                0x1fc0d680      0x194 common/libcommon.o
                0x1fc0d680                boot_relocate_fdt
 .text.boot_get_fdt
                0x1fc0d814      0x3a0 common/libcommon.o
                0x1fc0d814                boot_get_fdt
 .text.ft_verify_fdt
                0x1fc0dbb4        0x8 common/libcommon.o
                0x1fc0dbb4                ft_verify_fdt
 .text.image_setup_libfdt
                0x1fc0dbbc       0xd8 common/libcommon.o
                0x1fc0dbbc                image_setup_libfdt
 .text.fit_parse_conf
                0x1fc0dc94       0x64 common/libcommon.o
                0x1fc0dc94                fit_parse_conf
 .text.fit_parse_subimage
                0x1fc0dcf8       0x64 common/libcommon.o
                0x1fc0dcf8                fit_parse_subimage
 .text.fit_get_desc
                0x1fc0dd5c       0x2c common/libcommon.o
                0x1fc0dd5c                fit_get_desc
 .text.fit_image_get_node
                0x1fc0dd88       0x30 common/libcommon.o
                0x1fc0dd88                fit_image_get_node
 .text.fit_image_get_os
                0x1fc0ddb8       0x38 common/libcommon.o
                0x1fc0ddb8                fit_image_get_os
 .text.fit_image_get_arch
                0x1fc0ddf0       0x38 common/libcommon.o
                0x1fc0ddf0                fit_image_get_arch
 .text.fit_image_get_type
                0x1fc0de28       0x38 common/libcommon.o
                0x1fc0de28                fit_image_get_type
 .text.fit_image_get_comp
                0x1fc0de60       0x38 common/libcommon.o
                0x1fc0de60                fit_image_get_comp
 .text.fit_image_get_load
                0x1fc0de98       0x34 common/libcommon.o
                0x1fc0de98                fit_image_get_load
 .text.fit_image_get_entry
                0x1fc0decc       0x34 common/libcommon.o
                0x1fc0decc                fit_image_get_entry
 .text.fit_image_get_data
                0x1fc0df00       0x3c common/libcommon.o
                0x1fc0df00                fit_image_get_data
 .text.fit_image_hash_get_algo
                0x1fc0df3c       0x2c common/libcommon.o
                0x1fc0df3c                fit_image_hash_get_algo
 .text.fit_image_hash_get_value
                0x1fc0df68       0x3c common/libcommon.o
                0x1fc0df68                fit_image_hash_get_value
 .text.fit_image_print_data
                0x1fc0dfa4      0x140 common/libcommon.o
 .text.fit_image_print
                0x1fc0e0e4      0x32c common/libcommon.o
                0x1fc0e0e4                fit_image_print
 .text.calculate_hash
                0x1fc0e410       0xd0 common/libcommon.o
                0x1fc0e410                calculate_hash
 .text.fit_image_verify
                0x1fc0e4e0      0x21c common/libcommon.o
                0x1fc0e4e0                fit_image_verify
 .text.fit_all_image_verify
                0x1fc0e6fc       0xe0 common/libcommon.o
                0x1fc0e6fc                fit_all_image_verify
 .text.fit_image_check_os
                0x1fc0e7dc       0x34 common/libcommon.o
                0x1fc0e7dc                fit_image_check_os
 .text.fit_image_check_arch
                0x1fc0e810       0x34 common/libcommon.o
                0x1fc0e810                fit_image_check_arch
 .text.fit_image_check_type
                0x1fc0e844       0x34 common/libcommon.o
                0x1fc0e844                fit_image_check_type
 .text.fit_image_check_comp
                0x1fc0e878       0x34 common/libcommon.o
                0x1fc0e878                fit_image_check_comp
 .text.fit_check_format
                0x1fc0e8ac       0x40 common/libcommon.o
                0x1fc0e8ac                fit_check_format
 .text.fit_conf_get_node
                0x1fc0e8ec       0x68 common/libcommon.o
                0x1fc0e8ec                fit_conf_get_node
 .text.fit_conf_get_prop_node
                0x1fc0e954       0x28 common/libcommon.o
                0x1fc0e954                fit_conf_get_prop_node
 .text.fit_conf_print
                0x1fc0e97c      0x104 common/libcommon.o
                0x1fc0e97c                fit_conf_print
 .text.fit_print_contents
                0x1fc0ea80      0x1e8 common/libcommon.o
                0x1fc0ea80                fit_print_contents
 .text.fit_image_select
                0x1fc0ec68       0x6c common/libcommon.o
                0x1fc0ec68                fit_image_select
 .text.fit_get_node_from_config
                0x1fc0ecd4       0x44 common/libcommon.o
                0x1fc0ecd4                fit_get_node_from_config
 .text.fit_image_load
                0x1fc0ed18      0x488 common/libcommon.o
                0x1fc0ed18                fit_image_load
 .text.on_loadaddr
                0x1fc0f1a0       0x38 common/libcommon.o
 .text.image_check_hcrc
                0x1fc0f1d8       0x4c common/libcommon.o
                0x1fc0f1d8                image_check_hcrc
 .text.image_check_dcrc
                0x1fc0f224       0x38 common/libcommon.o
                0x1fc0f224                image_check_dcrc
 .text.image_multi_count
                0x1fc0f25c       0x20 common/libcommon.o
                0x1fc0f25c                image_multi_count
 .text.image_multi_getimg
                0x1fc0f27c       0x80 common/libcommon.o
                0x1fc0f27c                image_multi_getimg
 .text.getenv_bootm_low
                0x1fc0f2fc       0x28 common/libcommon.o
                0x1fc0f2fc                getenv_bootm_low
 .text.getenv_bootm_size
                0x1fc0f324       0x60 common/libcommon.o
                0x1fc0f324                getenv_bootm_size
 .text.getenv_bootm_mapsize
                0x1fc0f384       0x30 common/libcommon.o
                0x1fc0f384                getenv_bootm_mapsize
 .text.memmove_wd
                0x1fc0f3b4        0xc common/libcommon.o
                0x1fc0f3b4                memmove_wd
 .text.genimg_print_size
                0x1fc0f3c0       0x30 common/libcommon.o
                0x1fc0f3c0                genimg_print_size
 .text.get_table_entry_name
                0x1fc0f3f0       0x2c common/libcommon.o
                0x1fc0f3f0                get_table_entry_name
 .text.genimg_get_os_name
                0x1fc0f41c       0x18 common/libcommon.o
                0x1fc0f41c                genimg_get_os_name
 .text.genimg_get_arch_name
                0x1fc0f434       0x18 common/libcommon.o
                0x1fc0f434                genimg_get_arch_name
 .text.genimg_get_type_name
                0x1fc0f44c       0x18 common/libcommon.o
                0x1fc0f44c                genimg_get_type_name
 .text.genimg_get_comp_name
                0x1fc0f464       0x18 common/libcommon.o
                0x1fc0f464                genimg_get_comp_name
 .text.image_print_contents
                0x1fc0f47c      0x170 common/libcommon.o
                0x1fc0f47c                image_print_contents
 .text.get_table_entry_id
                0x1fc0f5ec       0x50 common/libcommon.o
                0x1fc0f5ec                get_table_entry_id
 .text.genimg_get_os_id
                0x1fc0f63c       0x18 common/libcommon.o
                0x1fc0f63c                genimg_get_os_id
 .text.genimg_get_arch_id
                0x1fc0f654       0x18 common/libcommon.o
                0x1fc0f654                genimg_get_arch_id
 .text.genimg_get_type_id
                0x1fc0f66c       0x18 common/libcommon.o
                0x1fc0f66c                genimg_get_type_id
 .text.genimg_get_comp_id
                0x1fc0f684       0x18 common/libcommon.o
                0x1fc0f684                genimg_get_comp_id
 .text.genimg_get_format
                0x1fc0f69c       0x38 common/libcommon.o
                0x1fc0f69c                genimg_get_format
 .text.genimg_get_image
                0x1fc0f6d4        0x4 common/libcommon.o
                0x1fc0f6d4                genimg_get_image
 .text.genimg_has_config
                0x1fc0f6d8       0x10 common/libcommon.o
                0x1fc0f6d8                genimg_has_config
 .text.boot_get_ramdisk
                0x1fc0f6e8      0x354 common/libcommon.o
                0x1fc0f6e8                boot_get_ramdisk
 .text.boot_ramdisk_high
                0x1fc0fa3c      0x140 common/libcommon.o
                0x1fc0fa3c                boot_ramdisk_high
 .text.image_setup_linux
                0x1fc0fb7c       0x88 common/libcommon.o
                0x1fc0fb7c                image_setup_linux
 .text.delete_char.part.1
                0x1fc0fc04       0xd4 common/libcommon.o
 .text.cread_add_char
                0x1fc0fcd8       0xec common/libcommon.o
 .text.__show_boot_progress
                0x1fc0fdc4        0x4 common/libcommon.o
                0x1fc0fdc4                __show_boot_progress
                0x1fc0fdc4                show_boot_progress
 .text.readline_into_buffer
                0x1fc0fdc8      0x8fc common/libcommon.o
                0x1fc0fdc8                readline_into_buffer
 .text.readline
                0x1fc106c4       0x14 common/libcommon.o
                0x1fc106c4                readline
 .text.run_command
                0x1fc106d8        0x8 common/libcommon.o
                0x1fc106d8                run_command
 .text.run_command_list
                0x1fc106e0       0x5c common/libcommon.o
                0x1fc106e0                run_command_list
 .text.main_loop
                0x1fc1073c      0x128 common/libcommon.o
                0x1fc1073c                main_loop
 .text.do_run   0x1fc10864       0x74 common/libcommon.o
                0x1fc10864                do_run
 .text.legacy_miiphy_read
                0x1fc108d8       0x30 common/libcommon.o
 .text.legacy_miiphy_write
                0x1fc10908       0x24 common/libcommon.o
 .text.miiphy_get_dev_by_name
                0x1fc1092c       0x5c common/libcommon.o
                0x1fc1092c                miiphy_get_dev_by_name
 .text.miiphy_init
                0x1fc10988       0x24 common/libcommon.o
                0x1fc10988                miiphy_init
 .text.mdio_alloc
                0x1fc109ac       0x30 common/libcommon.o
                0x1fc109ac                mdio_alloc
 .text.miiphy_register
                0x1fc109dc      0x108 common/libcommon.o
                0x1fc109dc                miiphy_register
 .text.hex1_bin
                0x1fc10ae4       0x40 common/libcommon.o
 .text.hex2_bin
                0x1fc10b24       0x38 common/libcommon.o
 .text.srec_decode
                0x1fc10b5c      0x25c common/libcommon.o
                0x1fc10b5c                srec_decode
 .text.stdio_get_list
                0x1fc10db8        0xc common/libcommon.o
                0x1fc10db8                stdio_get_list
 .text.stdio_get_by_name
                0x1fc10dc4       0x50 common/libcommon.o
                0x1fc10dc4                stdio_get_by_name
 .text.stdio_clone
                0x1fc10e14       0x3c common/libcommon.o
                0x1fc10e14                stdio_clone
 .text.stdio_register
                0x1fc10e50       0x44 common/libcommon.o
                0x1fc10e50                stdio_register
 .text.stdio_init
                0x1fc10e94       0x90 common/libcommon.o
                0x1fc10e94                stdio_init
 .text.CYGACC_COMM_IF_GETC_TIMEOUT.isra.1
                0x1fc10f24       0x4c common/libcommon.o
 .text.xyzModem_flush
                0x1fc10f70       0x18 common/libcommon.o
 .text.xyzModem_get_hdr
                0x1fc10f88      0x250 common/libcommon.o
 .text.xyzModem_stream_open
                0x1fc111d8      0x254 common/libcommon.o
                0x1fc111d8                xyzModem_stream_open
 .text.xyzModem_stream_read
                0x1fc1142c      0x254 common/libcommon.o
                0x1fc1142c                xyzModem_stream_read
 .text.xyzModem_stream_close
                0x1fc11680       0x50 common/libcommon.o
                0x1fc11680                xyzModem_stream_close
 .text.xyzModem_stream_terminate
                0x1fc116d0       0x94 common/libcommon.o
                0x1fc116d0                xyzModem_stream_terminate
 .text.xyzModem_error
                0x1fc11764       0x20 common/libcommon.o
                0x1fc11764                xyzModem_error
 .text.get_dev  0x1fc11784       0x64 disk/libdisk.o
                0x1fc11784                get_dev
 .text.dev_print
                0x1fc117e8      0x21c disk/libdisk.o
                0x1fc117e8                dev_print
 .text.init_part
                0x1fc11a04       0x20 disk/libdisk.o
                0x1fc11a04                init_part
 .text.print_part
                0x1fc11a24       0xe8 disk/libdisk.o
                0x1fc11a24                print_part
 .text.get_partition_info
                0x1fc11b0c       0x2c disk/libdisk.o
                0x1fc11b0c                get_partition_info
 .text.get_device
                0x1fc11b38       0x80 disk/libdisk.o
                0x1fc11b38                get_device
 .text.get_device_and_partition
                0x1fc11bb8      0x450 disk/libdisk.o
                0x1fc11bb8                get_device_and_partition
 .text.test_block_type
                0x1fc12008       0x7c disk/libdisk.o
 .text.print_partition_extended
                0x1fc12084      0x268 disk/libdisk.o
 .text.get_partition_info_extended.constprop.2
                0x1fc122ec      0x2a8 disk/libdisk.o
 .text.test_part_dos
                0x1fc12594       0x64 disk/libdisk.o
                0x1fc12594                test_part_dos
 .text.print_part_dos
                0x1fc125f8       0x30 disk/libdisk.o
                0x1fc125f8                print_part_dos
 .text.get_partition_info_dos
                0x1fc12628       0x1c disk/libdisk.o
                0x1fc12628                get_partition_info_dos
 .text.fpga_no_sup
                0x1fc12644       0x4c drivers/fpga/libfpga.o
 .text.fpga_dev_info
                0x1fc12690       0xac drivers/fpga/libfpga.o
 .text.fpga_validate
                0x1fc1273c       0x68 drivers/fpga/libfpga.o
                0x1fc1273c                fpga_validate
 .text.fpga_init
                0x1fc127a4       0x20 drivers/fpga/libfpga.o
                0x1fc127a4                fpga_init
 .text.fpga_count
                0x1fc127c4       0x10 drivers/fpga/libfpga.o
                0x1fc127c4                fpga_count
 .text.fpga_add
                0x1fc127d4       0xa0 drivers/fpga/libfpga.o
                0x1fc127d4                fpga_add
 .text.fpga_loadbitstream
                0x1fc12874      0x27c drivers/fpga/libfpga.o
                0x1fc1288c                fpga_loadbitstream
 .text.fpga_load
                0x1fc12af0       0x8c drivers/fpga/libfpga.o
                0x1fc12af0                fpga_load
 .text.fpga_dump
                0x1fc12b7c       0x8c drivers/fpga/libfpga.o
                0x1fc12b7c                fpga_dump
 .text.fpga_info
                0x1fc12c08       0x78 drivers/fpga/libfpga.o
                0x1fc12c08                fpga_info
 .text.load_word
                0x1fc12c80       0x48 drivers/fpga/libfpga.o
 .text.zynq_info
                0x1fc12cc8        0x8 drivers/fpga/libfpga.o
                0x1fc12cc8                zynq_info
 .text.zynq_load
                0x1fc12cd0      0x3d8 drivers/fpga/libfpga.o
                0x1fc12cd0                zynq_load
 .text.zynq_dump
                0x1fc130a8        0x8 drivers/fpga/libfpga.o
                0x1fc130a8                zynq_dump
 .text.xilinx_validate
                0x1fc130b0       0x78 drivers/fpga/libfpga.o
 .text.xilinx_load
                0x1fc13128       0xac drivers/fpga/libfpga.o
                0x1fc13128                xilinx_load
 .text.xilinx_dump
                0x1fc131d4       0xac drivers/fpga/libfpga.o
                0x1fc131d4                xilinx_dump
 .text.xilinx_info
                0x1fc13280      0x20c drivers/fpga/libfpga.o
                0x1fc13280                xilinx_info
 .text.mmc_set_ios
                0x1fc1348c       0x10 drivers/mmc/libmmc.o
 .text.mmc_send_cmd
                0x1fc1349c       0x3c drivers/mmc/libmmc.o
 .text.mmc_send_ext_csd
                0x1fc134d8       0x4c drivers/mmc/libmmc.o
 .text.mmc_go_idle
                0x1fc13524       0x4c drivers/mmc/libmmc.o
 .text.mmc_send_op_cond_iter
                0x1fc13570       0x88 drivers/mmc/libmmc.o
 .text.mmc_set_capacity
                0x1fc135f8       0xa4 drivers/mmc/libmmc.o
 .text.mmc_send_status.constprop.6
                0x1fc1369c       0xcc drivers/mmc/libmmc.o
 .text.mmc_switch.isra.1
                0x1fc13768       0x50 drivers/mmc/libmmc.o
 .text.board_mmc_getwp
                0x1fc137b8        0x8 drivers/mmc/libmmc.o
                0x1fc137b8                board_mmc_getwp
 .text.mmc_getwp
                0x1fc137c0       0x34 drivers/mmc/libmmc.o
                0x1fc137c0                mmc_getwp
 .text.__board_mmc_getcd
                0x1fc137f4        0x8 drivers/mmc/libmmc.o
                0x1fc137f4                __board_mmc_getcd
                0x1fc137f4                board_mmc_getcd
 .text.find_mmc_device
                0x1fc137fc       0x4c drivers/mmc/libmmc.o
                0x1fc137fc                find_mmc_device
 .text.mmc_berase
                0x1fc13848      0x194 drivers/mmc/libmmc.o
 .text.mmc_bwrite
                0x1fc139dc      0x194 drivers/mmc/libmmc.o
 .text.mmc_bread
                0x1fc13b70      0x164 drivers/mmc/libmmc.o
 .text.mmc_send_op_cond
                0x1fc13cd4       0x6c drivers/mmc/libmmc.o
                0x1fc13cd4                mmc_send_op_cond
 .text.mmc_complete_op_cond
                0x1fc13d40       0xcc drivers/mmc/libmmc.o
                0x1fc13d40                mmc_complete_op_cond
 .text.mmc_switch_part
                0x1fc13e0c       0x4c drivers/mmc/libmmc.o
                0x1fc13e0c                mmc_switch_part
 .text.mmc_getcd
                0x1fc13e58       0x34 drivers/mmc/libmmc.o
                0x1fc13e58                mmc_getcd
 .text.mmc_set_clock
                0x1fc13e8c       0x20 drivers/mmc/libmmc.o
                0x1fc13e8c                mmc_set_clock
 .text.mmc_startup
                0x1fc13eac      0xafc drivers/mmc/libmmc.o
 .text.mmc_register
                0x1fc149a8       0x88 drivers/mmc/libmmc.o
                0x1fc149a8                mmc_register
 .text.mmc_start_init
                0x1fc14a30      0x24c drivers/mmc/libmmc.o
                0x1fc14a30                mmc_start_init
 .text.mmc_init
                0x1fc14c7c       0x98 drivers/mmc/libmmc.o
                0x1fc14c7c                mmc_init
 .text.mmc_get_dev
                0x1fc14d14       0x2c drivers/mmc/libmmc.o
                0x1fc14d14                mmc_get_dev
 .text.__def_mmc_init
                0x1fc14d40        0x8 drivers/mmc/libmmc.o
                0x1fc14d40                cpu_mmc_init
 .text.print_mmc_devices
                0x1fc14d48       0x64 drivers/mmc/libmmc.o
                0x1fc14d48                print_mmc_devices
 .text.get_mmc_num
                0x1fc14dac       0x10 drivers/mmc/libmmc.o
                0x1fc14dac                get_mmc_num
 .text.mmc_initialize
                0x1fc14dbc       0x78 drivers/mmc/libmmc.o
                0x1fc14dbc                mmc_initialize
 .text.sdhci_reset
                0x1fc14e34       0x54 drivers/mmc/libmmc.o
 .text.sdhci_set_ios
                0x1fc14e88      0x1b8 drivers/mmc/libmmc.o
                0x1fc14e88                sdhci_set_ios
 .text.sdhci_init
                0x1fc15040      0x190 drivers/mmc/libmmc.o
                0x1fc15040                sdhci_init
 .text.sdhci_send_command
                0x1fc151d0      0x36c drivers/mmc/libmmc.o
                0x1fc151d0                sdhci_send_command
 .text.add_sdhci
                0x1fc1553c      0x190 drivers/mmc/libmmc.o
                0x1fc1553c                add_sdhci
 .text.zynq_sdhci_init
                0x1fc156cc       0x6c drivers/mmc/libmmc.o
                0x1fc156cc                zynq_sdhci_init
 .text.spi_flash_get_status
                0x1fc15738       0xa4 drivers/mtd/spi/libspi_flash.o
 .text.spi_flash_read_write
                0x1fc157dc       0x98 drivers/mtd/spi/libspi_flash.o
 .text.spi_flash_cmd_read
                0x1fc15874       0x1c drivers/mtd/spi/libspi_flash.o
                0x1fc15874                spi_flash_cmd_read
 .text.spi_flash_cmd
                0x1fc15890       0x2c drivers/mtd/spi/libspi_flash.o
                0x1fc15890                spi_flash_cmd
 .text.spi_flash_cmd_write
                0x1fc158bc       0x1c drivers/mtd/spi/libspi_flash.o
                0x1fc158bc                spi_flash_cmd_write
 .text.spi_flash_cmd_wait_ready
                0x1fc158d8       0x80 drivers/mtd/spi/libspi_flash.o
                0x1fc158d8                spi_flash_cmd_wait_ready
 .text.spi_flash_write_common
                0x1fc15958       0x98 drivers/mtd/spi/libspi_flash.o
                0x1fc15958                spi_flash_write_common
 .text.spi_flash_read_common
                0x1fc159f0       0x58 drivers/mtd/spi/libspi_flash.o
                0x1fc159f0                spi_flash_read_common
 .text.spi_flash_cmd_write_config
                0x1fc15a48       0x6c drivers/mtd/spi/libspi_flash.o
                0x1fc15a48                spi_flash_cmd_write_config
 .text.spi_flash_set_qeb
                0x1fc15ab4       0x60 drivers/mtd/spi/libspi_flash.o
                0x1fc15ab4                spi_flash_set_qeb
 .text.spi_flash_cmd_bankaddr_write
                0x1fc15b14       0x54 drivers/mtd/spi/libspi_flash.o
                0x1fc15b14                spi_flash_cmd_bankaddr_write
 .text.spi_flash_cmd_read_fast
                0x1fc15b68      0x17c drivers/mtd/spi/libspi_flash.o
                0x1fc15b68                spi_flash_cmd_read_fast
 .text.spi_flash_cmd_write_multi
                0x1fc15ce4      0x138 drivers/mtd/spi/libspi_flash.o
                0x1fc15ce4                spi_flash_cmd_write_multi
 .text.spi_flash_cmd_erase
                0x1fc15e1c      0x114 drivers/mtd/spi/libspi_flash.o
                0x1fc15e1c                spi_flash_cmd_erase
 .text.spi_flash_bank_config
                0x1fc15f30       0xec drivers/mtd/spi/libspi_flash.o
                0x1fc15f30                spi_flash_bank_config
 .text.spi_flash_probe
                0x1fc1601c      0x188 drivers/mtd/spi/libspi_flash.o
                0x1fc1601c                spi_flash_probe
 .text.spi_flash_do_alloc
                0x1fc161a4       0x7c drivers/mtd/spi/libspi_flash.o
                0x1fc161a4                spi_flash_do_alloc
 .text.spi_flash_free
                0x1fc16220       0x1c drivers/mtd/spi/libspi_flash.o
                0x1fc16220                spi_flash_free
 .text.generic_fls.part.0
                0x1fc1623c       0xe4 drivers/mtd/spi/libspi_flash.o
 .text.spi_flash_probe_spansion
                0x1fc16320      0x140 drivers/mtd/spi/libspi_flash.o
                0x1fc16320                spi_flash_probe_spansion
 .text.spi_flash_probe_stmicro
                0x1fc16460      0x188 drivers/mtd/spi/libspi_flash.o
                0x1fc16460                spi_flash_probe_stmicro
 .text.spi_flash_probe_winbond
                0x1fc165e8      0x12c drivers/mtd/spi/libspi_flash.o
                0x1fc165e8                spi_flash_probe_winbond
 .text.nc_wait_arp_handler
                0x1fc16714       0x14 drivers/net/libnet.o
 .text.nc_handler
                0x1fc16728       0x24 drivers/net/libnet.o
 .text.nc_timeout
                0x1fc1674c       0x14 drivers/net/libnet.o
 .text.nc_getc  0x1fc16760       0x88 drivers/net/libnet.o
 .text.nc_send_packet
                0x1fc167e8      0x158 drivers/net/libnet.o
 .text.nc_putc  0x1fc16940       0x34 drivers/net/libnet.o
 .text.is_broadcast
                0x1fc16974       0xa0 drivers/net/libnet.o
 .text.nc_tstc  0x1fc16a14       0x98 drivers/net/libnet.o
 .text.nc_puts  0x1fc16aac       0x64 drivers/net/libnet.o
 .text.refresh_settings_from_env
                0x1fc16b10      0x118 drivers/net/libnet.o
 .text.nc_start
                0x1fc16c28       0x38 drivers/net/libnet.o
 .text.NcStart  0x1fc16c60       0xdc drivers/net/libnet.o
                0x1fc16c60                NcStart
 .text.nc_input_packet
                0x1fc16d3c       0xe4 drivers/net/libnet.o
                0x1fc16d3c                nc_input_packet
 .text.drv_nc_init
                0x1fc16e20       0x84 drivers/net/libnet.o
                0x1fc16e20                drv_nc_init
 .text.zynq_gem_setup_mac
                0x1fc16ea4       0x70 drivers/net/libnet.o
 .text.zynq_gem_halt
                0x1fc16f14       0x14 drivers/net/libnet.o
 .text.phy_setup_op
                0x1fc16f28       0xa8 drivers/net/libnet.o
 .text.zynq_gem_miiphy_write
                0x1fc16fd0       0x2c drivers/net/libnet.o
 .text.zynq_gem_recv
                0x1fc16ffc       0xd8 drivers/net/libnet.o
 .text.zynq_gem_send
                0x1fc170d4       0xb0 drivers/net/libnet.o
 .text.zynq_gem_init
                0x1fc17184      0x268 drivers/net/libnet.o
 .text.zynq_gem_miiphyread
                0x1fc173ec       0x20 drivers/net/libnet.o
 .text.zynq_gem_initialize
                0x1fc1740c      0x128 drivers/net/libnet.o
                0x1fc1740c                zynq_gem_initialize
 .text.genphy_shutdown
                0x1fc17534        0x8 drivers/net/phy/libphy.o
                0x1fc17534                genphy_shutdown
 .text.generic_ffs.part.0
                0x1fc1753c       0x48 drivers/net/phy/libphy.o
 .text.phy_device_create
                0x1fc17584       0xe4 drivers/net/phy/libphy.o
 .text.get_phy_device_by_mask
                0x1fc17668      0x17c drivers/net/phy/libphy.o
 .text.genphy_restart_aneg
                0x1fc177e4       0x54 drivers/net/phy/libphy.o
                0x1fc177e4                genphy_restart_aneg
 .text.genphy_config_aneg
                0x1fc17838      0x1e8 drivers/net/phy/libphy.o
                0x1fc17838                genphy_config_aneg
 .text.genphy_config
                0x1fc17a20       0xb4 drivers/net/phy/libphy.o
                0x1fc17a20                genphy_config
 .text.genphy_update_link
                0x1fc17ad4      0x13c drivers/net/phy/libphy.o
                0x1fc17ad4                genphy_update_link
 .text.genphy_parse_link
                0x1fc17c10      0x18c drivers/net/phy/libphy.o
                0x1fc17c10                genphy_parse_link
 .text.genphy_startup
                0x1fc17d9c       0x1c drivers/net/phy/libphy.o
                0x1fc17d9c                genphy_startup
 .text.phy_init
                0x1fc17db8       0x10 drivers/net/phy/libphy.o
                0x1fc17db8                phy_init
 .text.phy_register
                0x1fc17dc8       0x28 drivers/net/phy/libphy.o
                0x1fc17dc8                phy_register
 .text.phy_reset
                0x1fc17df0       0xa8 drivers/net/phy/libphy.o
                0x1fc17df0                phy_reset
 .text.phy_find_by_mask
                0x1fc17e98       0x3c drivers/net/phy/libphy.o
                0x1fc17e98                phy_find_by_mask
 .text.phy_connect_dev
                0x1fc17ed4       0x40 drivers/net/phy/libphy.o
                0x1fc17ed4                phy_connect_dev
 .text.phy_connect
                0x1fc17f14       0x50 drivers/net/phy/libphy.o
                0x1fc17f14                phy_connect
 .text.phy_startup
                0x1fc17f64       0x24 drivers/net/phy/libphy.o
                0x1fc17f64                phy_startup
 .text.__board_phy_config
                0x1fc17f88       0x24 drivers/net/phy/libphy.o
                0x1fc17f88                board_phy_config
 .text.phy_config
                0x1fc17fac       0x10 drivers/net/phy/libphy.o
                0x1fc17fac                phy_config
 .text.m88e1011s_config
                0x1fc17fbc       0xf4 drivers/net/phy/libphy.o
 .text.m88e1121_config
                0x1fc180b0       0xc8 drivers/net/phy/libphy.o
 .text.m88e1111s_config
                0x1fc18178      0x32c drivers/net/phy/libphy.o
 .text.m88e1118_config
                0x1fc184a4       0xc0 drivers/net/phy/libphy.o
 .text.m88e1145_config
                0x1fc18564      0x108 drivers/net/phy/libphy.o
 .text.m88e1149_config
                0x1fc1866c       0xc0 drivers/net/phy/libphy.o
 .text.m88e1310_config
                0x1fc1872c      0x164 drivers/net/phy/libphy.o
 .text.m88e1xxx_parse_status
                0x1fc18890      0x114 drivers/net/phy/libphy.o
 .text.m88e1118_startup
                0x1fc189a4       0x40 drivers/net/phy/libphy.o
 .text.m88e1145_startup
                0x1fc189e4       0x3c drivers/net/phy/libphy.o
 .text.m88e1011s_startup
                0x1fc18a20       0x1c drivers/net/phy/libphy.o
 .text.phy_marvell_init
                0x1fc18a3c       0x78 drivers/net/phy/libphy.o
                0x1fc18a3c                phy_marvell_init
 .text.get_current
                0x1fc18ab4       0x3c drivers/serial/libserial.o
 .text.serial_null
                0x1fc18af0        0x4 drivers/serial/libserial.o
                0x1fc18af0                jz_serial_initialize
                0x1fc18af0                bfin_serial_initialize
                0x1fc18af0                p3mx_serial_initialize
                0x1fc18af0                leon2_serial_initialize
                0x1fc18af0                leon3_serial_initialize
                0x1fc18af0                amirix_serial_initialize
                0x1fc18af0                marvell_serial_initialize
                0x1fc18af0                cpci750_serial_initialize
                0x1fc18af0                ns16550_serial_initialize
                0x1fc18af0                asc_serial_initialize
                0x1fc18af0                altera_serial_initialize
                0x1fc18af0                oc_serial_initialize
                0x1fc18af0                sh_serial_initialize
                0x1fc18af0                arm_dcc_initialize
                0x1fc18af0                bmw_serial_initialize
                0x1fc18af0                mcf_serial_initialize
                0x1fc18af0                lh7a40x_serial_initialize
                0x1fc18af0                evb64260_serial_initialize
                0x1fc18af0                lpc32xx_serial_initialize
                0x1fc18af0                max3100_serial_initialize
                0x1fc18af0                mpc85xx_serial_initialize
                0x1fc18af0                imx_serial_initialize
                0x1fc18af0                ixp_serial_initialize
                0x1fc18af0                bfin_jtag_initialize
                0x1fc18af0                cogent_serial_initialize
                0x1fc18af0                clps7111_serial_initialize
                0x1fc18af0                ml2_serial_initialize
                0x1fc18af0                sandbox_serial_initialize
                0x1fc18af0                s3c24xx_serial_initialize
                0x1fc18af0                sconsole_serial_initialize
                0x1fc18af0                uartlite_serial_initialize
                0x1fc18af0                au1x00_serial_initialize
                0x1fc18af0                pxa_serial_initialize
                0x1fc18af0                atmel_serial_initialize
                0x1fc18af0                pl01x_serial_initialize
                0x1fc18af0                altera_jtag_serial_initialize
                0x1fc18af0                mpc512x_serial_initialize
                0x1fc18af0                s5p_serial_initialize
                0x1fc18af0                ks8695_serial_initialize
                0x1fc18af0                sa1100_serial_initialize
                0x1fc18af0                mpc8260_scc_serial_initialize
                0x1fc18af0                mxc_serial_initialize
                0x1fc18af0                iop480_serial_initialize
                0x1fc18af0                s3c44b0_serial_initialize
                0x1fc18af0                mpc8xx_serial_initialize
                0x1fc18af0                mpc8260_smc_serial_initialize
                0x1fc18af0                mpc5xx_serial_initialize
 .text.serial_register
                0x1fc18af4       0x18 drivers/serial/libserial.o
                0x1fc18af4                serial_register
 .text.serial_stdio_init
                0x1fc18b0c       0x8c drivers/serial/libserial.o
                0x1fc18b0c                serial_stdio_init
 .text.serial_assign
                0x1fc18b98       0x50 drivers/serial/libserial.o
                0x1fc18b98                serial_assign
 .text.serial_initialize
                0x1fc18be8       0xd0 drivers/serial/libserial.o
                0x1fc18be8                serial_initialize
 .text.serial_init
                0x1fc18cb8       0x14 drivers/serial/libserial.o
                0x1fc18cb8                serial_init
 .text.serial_setbrg
                0x1fc18ccc       0x14 drivers/serial/libserial.o
                0x1fc18ccc                serial_setbrg
 .text.on_baudrate
                0x1fc18ce0       0xf0 drivers/serial/libserial.o
 .text.serial_getc
                0x1fc18dd0       0x14 drivers/serial/libserial.o
                0x1fc18dd0                serial_getc
 .text.serial_tstc
                0x1fc18de4       0x14 drivers/serial/libserial.o
                0x1fc18de4                serial_tstc
 .text.serial_putc
                0x1fc18df8       0x1c drivers/serial/libserial.o
                0x1fc18df8                serial_putc
 .text.serial_puts
                0x1fc18e14       0x1c drivers/serial/libserial.o
                0x1fc18e14                serial_puts
 .text.uart_zynq_serial_setbrg
                0x1fc18e30       0xa4 drivers/serial/libserial.o
 .text.uart_zynq_serial_putc
                0x1fc18ed4       0x40 drivers/serial/libserial.o
 .text.uart_zynq0_setbrg
                0x1fc18f14        0x8 drivers/serial/libserial.o
                0x1fc18f14                uart_zynq0_setbrg
 .text.uart_zynq0_putc
                0x1fc18f1c        0x8 drivers/serial/libserial.o
                0x1fc18f1c                uart_zynq0_putc
 .text.uart_zynq0_tstc
                0x1fc18f24       0x18 drivers/serial/libserial.o
                0x1fc18f24                uart_zynq0_tstc
 .text.uart_zynq0_init
                0x1fc18f3c       0x2c drivers/serial/libserial.o
                0x1fc18f3c                uart_zynq0_init
 .text.uart_zynq0_getc
                0x1fc18f68       0x20 drivers/serial/libserial.o
                0x1fc18f68                uart_zynq0_getc
 .text.uart_zynq0_puts
                0x1fc18f88       0x24 drivers/serial/libserial.o
                0x1fc18f88                uart_zynq0_puts
 .text.default_serial_console
                0x1fc18fac        0xc drivers/serial/libserial.o
                0x1fc18fac                default_serial_console
 .text.zynq_serial_initalize
                0x1fc18fb8        0xc drivers/serial/libserial.o
                0x1fc18fb8                zynq_serial_initalize
 .text.spi_do_alloc_slave
                0x1fc18fc4       0x44 drivers/spi/libspi.o
                0x1fc18fc4                spi_do_alloc_slave
 .text.zynq_qspi_copy_write_data
                0x1fc19008       0xf8 drivers/spi/libspi.o
 .text.zynq_qspi_fill_tx_fifo
                0x1fc19100       0xb8 drivers/spi/libspi.o
 .text.zynq_qspi_copy_read_data
                0x1fc191b8       0xb4 drivers/spi/libspi.o
 .text.zynq_qspi_setup_transfer
                0x1fc1926c       0xb0 drivers/spi/libspi.o
 .text.spi_init
                0x1fc1931c        0x4 drivers/spi/libspi.o
                0x1fc1931c                spi_init
 .text.spi_setup_slave
                0x1fc19320      0x1f0 drivers/spi/libspi.o
                0x1fc19320                spi_setup_slave
 .text.spi_free_slave
                0x1fc19510        0x4 drivers/spi/libspi.o
                0x1fc19510                spi_free_slave
 .text.spi_claim_bus
                0x1fc19514        0x8 drivers/spi/libspi.o
                0x1fc19514                spi_claim_bus
 .text.spi_release_bus
                0x1fc1951c        0x4 drivers/spi/libspi.o
                0x1fc1951c                spi_release_bus
 .text.spi_xfer
                0x1fc19520      0x414 drivers/spi/libspi.o
                0x1fc19520                spi_xfer
 .text.get_fs   0x1fc19934        0xc fs/ext4/libext4fs.o
                0x1fc19934                get_fs
 .text.ext4fs_free_node
                0x1fc19940       0x24 fs/ext4/libext4fs.o
                0x1fc19940                ext4fs_free_node
 .text.ext4fs_read_file
                0x1fc19964      0x27c fs/ext4/libext4fs.o
                0x1fc19964                ext4fs_read_file
 .text.ext4fs_ls
                0x1fc19be0       0x78 fs/ext4/libext4fs.o
                0x1fc19be0                ext4fs_ls
 .text.ext4fs_read
                0x1fc19c58       0x40 fs/ext4/libext4fs.o
                0x1fc19c58                ext4fs_read
 .text.ext4fs_probe
                0x1fc19c98       0x30 fs/ext4/libext4fs.o
                0x1fc19c98                ext4fs_probe
 .text.ext4_read_file
                0x1fc19cc8       0x64 fs/ext4/libext4fs.o
                0x1fc19cc8                ext4_read_file
 .text.ext4fs_read_inode
                0x1fc19d2c      0x134 fs/ext4/libext4fs.o
                0x1fc19d2c                ext4fs_read_inode
 .text.read_allocated_block
                0x1fc19e60      0x980 fs/ext4/libext4fs.o
                0x1fc19e60                read_allocated_block
 .text.ext4fs_close
                0x1fc1a7e0      0x110 fs/ext4/libext4fs.o
                0x1fc1a7e0                ext4fs_close
 .text.ext4fs_iterate_dir
                0x1fc1a8f0      0x284 fs/ext4/libext4fs.o
                0x1fc1a8f0                ext4fs_iterate_dir
 .text.ext4fs_find_file1
                0x1fc1ab74      0x298 fs/ext4/libext4fs.o
 .text.ext4fs_find_file
                0x1fc1ae0c       0x74 fs/ext4/libext4fs.o
                0x1fc1ae0c                ext4fs_find_file
 .text.ext4fs_open
                0x1fc1ae80       0x9c fs/ext4/libext4fs.o
                0x1fc1ae80                ext4fs_open
 .text.ext4fs_mount
                0x1fc1af1c       0xc8 fs/ext4/libext4fs.o
                0x1fc1af1c                ext4fs_mount
 .text.ext4fs_set_blk_dev
                0x1fc1afe4       0x70 fs/ext4/libext4fs.o
                0x1fc1afe4                ext4fs_set_blk_dev
 .text.ext4fs_devread
                0x1fc1b054      0x258 fs/ext4/libext4fs.o
                0x1fc1b054                ext4fs_devread
 .text.ext4_read_superblock
                0x1fc1b2ac       0x3c fs/ext4/libext4fs.o
                0x1fc1b2ac                ext4_read_superblock
 .text.downcase
                0x1fc1b2e8       0x30 fs/fat/libfat.o
 .text.disk_read
                0x1fc1b318       0x58 fs/fat/libfat.o
 .text.dirdelim
                0x1fc1b370       0x34 fs/fat/libfat.o
 .text.get_fatent
                0x1fc1b3a4      0x158 fs/fat/libfat.o
 .text.mkcksum  0x1fc1b4fc       0x54 fs/fat/libfat.o
 .text.get_name
                0x1fc1b550       0xac fs/fat/libfat.o
 .text.read_bootsectandvi
                0x1fc1b5fc      0x128 fs/fat/libfat.o
 .text.get_cluster
                0x1fc1b724      0x17c fs/fat/libfat.o
 .text.slot2str
                0x1fc1b8a0       0xc8 fs/fat/libfat.o
 .text.get_vfatname
                0x1fc1b968      0x1c8 fs/fat/libfat.o
 .text.fat_set_blk_dev
                0x1fc1bb30       0xd4 fs/fat/libfat.o
                0x1fc1bb30                fat_set_blk_dev
 .text.do_fat_read_at
                0x1fc1bc04      0xb68 fs/fat/libfat.o
                0x1fc1bc04                do_fat_read_at
 .text.do_fat_read
                0x1fc1c76c       0x24 fs/fat/libfat.o
                0x1fc1c76c                do_fat_read
 .text.file_fat_detectfs
                0x1fc1c790      0x14c fs/fat/libfat.o
                0x1fc1c790                file_fat_detectfs
 .text.file_fat_ls
                0x1fc1c8dc       0x10 fs/fat/libfat.o
                0x1fc1c8dc                file_fat_ls
 .text.file_fat_read_at
                0x1fc1c8ec       0x44 fs/fat/libfat.o
                0x1fc1c8ec                file_fat_read_at
 .text.fat_read_file
                0x1fc1c930       0x3c fs/fat/libfat.o
                0x1fc1c930                fat_read_file
 .text.fat_close
                0x1fc1c96c        0x4 fs/fat/libfat.o
                0x1fc1c96c                fat_close
 .text.fs_probe_unsupported
                0x1fc1c970       0x18 fs/libfs.o
 .text.fs_ls_unsupported
                0x1fc1c988        0x8 fs/libfs.o
 .text.fs_read_unsupported
                0x1fc1c990        0x8 fs/libfs.o
 .text.fs_write_unsupported
                0x1fc1c998        0x8 fs/libfs.o
 .text.fs_close_unsupported
                0x1fc1c9a0        0x4 fs/libfs.o
 .text.fs_get_info
                0x1fc1c9a4       0x30 fs/libfs.o
 .text.fs_close
                0x1fc1c9d4       0x28 fs/libfs.o
 .text.fs_set_blk_dev
                0x1fc1c9fc       0xa0 fs/libfs.o
                0x1fc1c9fc                fs_set_blk_dev
 .text.fs_ls    0x1fc1ca9c       0x3c fs/libfs.o
                0x1fc1ca9c                fs_ls
 .text.fs_read  0x1fc1cad8       0x80 fs/libfs.o
                0x1fc1cad8                fs_read
 .text.do_load  0x1fc1cb58      0x1c0 fs/libfs.o
                0x1fc1cb58                do_load
 .text.do_ls    0x1fc1cd18       0x6c fs/libfs.o
                0x1fc1cd18                do_ls
 .text.fdt_check_header
                0x1fc1cd84       0x78 lib/libfdt/libfdt.o
                0x1fc1cd84                fdt_check_header
 .text.fdt_offset_ptr
                0x1fc1cdfc       0x4c lib/libfdt/libfdt.o
                0x1fc1cdfc                fdt_offset_ptr
 .text.fdt_next_tag
                0x1fc1ce48       0xf8 lib/libfdt/libfdt.o
                0x1fc1ce48                fdt_next_tag
 .text._fdt_check_node_offset
                0x1fc1cf40       0x38 lib/libfdt/libfdt.o
                0x1fc1cf40                _fdt_check_node_offset
 .text._fdt_check_prop_offset
                0x1fc1cf78       0x38 lib/libfdt/libfdt.o
                0x1fc1cf78                _fdt_check_prop_offset
 .text.fdt_next_node
                0x1fc1cfb0       0xc0 lib/libfdt/libfdt.o
                0x1fc1cfb0                fdt_next_node
 .text.fdt_first_subnode
                0x1fc1d070       0x34 lib/libfdt/libfdt.o
                0x1fc1d070                fdt_first_subnode
 .text.fdt_next_subnode
                0x1fc1d0a4       0x4c lib/libfdt/libfdt.o
                0x1fc1d0a4                fdt_next_subnode
 .text._fdt_find_string
                0x1fc1d0f0       0x58 lib/libfdt/libfdt.o
                0x1fc1d0f0                _fdt_find_string
 .text.fdt_move
                0x1fc1d148       0x48 lib/libfdt/libfdt.o
                0x1fc1d148                fdt_move
 .text._nextprop
                0x1fc1d190       0x50 lib/libfdt/libfdt.o
 .text.fdt_string
                0x1fc1d1e0       0x14 lib/libfdt/libfdt.o
                0x1fc1d1e0                fdt_string
 .text.fdt_get_mem_rsv
                0x1fc1d1f4       0x70 lib/libfdt/libfdt.o
                0x1fc1d1f4                fdt_get_mem_rsv
 .text.fdt_num_mem_rsv
                0x1fc1d264       0x3c lib/libfdt/libfdt.o
                0x1fc1d264                fdt_num_mem_rsv
 .text.fdt_subnode_offset_namelen
                0x1fc1d2a0       0xd0 lib/libfdt/libfdt.o
                0x1fc1d2a0                fdt_subnode_offset_namelen
 .text.fdt_subnode_offset
                0x1fc1d370       0x30 lib/libfdt/libfdt.o
                0x1fc1d370                fdt_subnode_offset
 .text.fdt_get_name
                0x1fc1d3a0       0x6c lib/libfdt/libfdt.o
                0x1fc1d3a0                fdt_get_name
 .text.fdt_first_property_offset
                0x1fc1d40c       0x20 lib/libfdt/libfdt.o
                0x1fc1d40c                fdt_first_property_offset
 .text.fdt_next_property_offset
                0x1fc1d42c       0x20 lib/libfdt/libfdt.o
                0x1fc1d42c                fdt_next_property_offset
 .text.fdt_get_property_by_offset
                0x1fc1d44c       0x50 lib/libfdt/libfdt.o
                0x1fc1d44c                fdt_get_property_by_offset
 .text.fdt_get_property_namelen
                0x1fc1d49c       0xac lib/libfdt/libfdt.o
                0x1fc1d49c                fdt_get_property_namelen
 .text.fdt_get_property
                0x1fc1d548       0x38 lib/libfdt/libfdt.o
                0x1fc1d548                fdt_get_property
 .text.fdt_getprop_namelen
                0x1fc1d580       0x1c lib/libfdt/libfdt.o
                0x1fc1d580                fdt_getprop_namelen
 .text.fdt_getprop
                0x1fc1d59c       0x38 lib/libfdt/libfdt.o
                0x1fc1d59c                fdt_getprop
 .text.fdt_get_alias_namelen
                0x1fc1d5d4       0x48 lib/libfdt/libfdt.o
                0x1fc1d5d4                fdt_get_alias_namelen
 .text.fdt_path_offset
                0x1fc1d61c       0xf0 lib/libfdt/libfdt.o
                0x1fc1d61c                fdt_path_offset
 .text.fdt_supernode_atdepth_offset
                0x1fc1d70c       0xb8 lib/libfdt/libfdt.o
                0x1fc1d70c                fdt_supernode_atdepth_offset
 .text.fdt_node_depth
                0x1fc1d7c4       0x24 lib/libfdt/libfdt.o
                0x1fc1d7c4                fdt_node_depth
 .text._fdt_blocks_misordered
                0x1fc1d7e8       0x64 lib/libfdt/libfdt.o
 .text._fdt_packblocks
                0x1fc1d84c       0xa8 lib/libfdt/libfdt.o
 .text._fdt_splice
                0x1fc1d8f4       0x78 lib/libfdt/libfdt.o
 .text._fdt_splice_struct
                0x1fc1d96c       0x4c lib/libfdt/libfdt.o
 .text._fdt_splice_mem_rsv
                0x1fc1d9b8       0x58 lib/libfdt/libfdt.o
 .text._fdt_add_property
                0x1fc1da10      0x138 lib/libfdt/libfdt.o
 .text._fdt_rw_check_header
                0x1fc1db48       0x64 lib/libfdt/libfdt.o
 .text.fdt_add_mem_rsv
                0x1fc1dbac       0x94 lib/libfdt/libfdt.o
                0x1fc1dbac                fdt_add_mem_rsv
 .text.fdt_del_mem_rsv
                0x1fc1dc40       0x58 lib/libfdt/libfdt.o
                0x1fc1dc40                fdt_del_mem_rsv
 .text.fdt_setprop
                0x1fc1dc98       0xd8 lib/libfdt/libfdt.o
                0x1fc1dc98                fdt_setprop
 .text.fdt_delprop
                0x1fc1dd70       0x64 lib/libfdt/libfdt.o
                0x1fc1dd70                fdt_delprop
 .text.fdt_add_subnode_namelen
                0x1fc1ddd4       0xf8 lib/libfdt/libfdt.o
                0x1fc1ddd4                fdt_add_subnode_namelen
 .text.fdt_add_subnode
                0x1fc1decc       0x30 lib/libfdt/libfdt.o
                0x1fc1decc                fdt_add_subnode
 .text.fdt_del_node
                0x1fc1defc       0x5c lib/libfdt/libfdt.o
                0x1fc1defc                fdt_del_node
 .text.fdt_open_into
                0x1fc1df58      0x1b0 lib/libfdt/libfdt.o
                0x1fc1df58                fdt_open_into
 .text.fdt_strerror
                0x1fc1e108       0x58 lib/libfdt/libfdt.o
                0x1fc1e108                fdt_strerror
 .text._fdt_node_end_offset
                0x1fc1e160       0x40 lib/libfdt/libfdt.o
                0x1fc1e160                _fdt_node_end_offset
 .text.cyg_crc16
                0x1fc1e1a0       0x44 lib/libgeneric.o
                0x1fc1e1a0                cyg_crc16
 .text.crc32_no_comp
                0x1fc1e1e4       0xd8 lib/libgeneric.o
                0x1fc1e1e4                crc32_no_comp
 .text.crc32    0x1fc1e2bc       0x14 lib/libgeneric.o
                0x1fc1e2bc                crc32
 .text.crc32_wd
                0x1fc1e2d0        0x4 lib/libgeneric.o
                0x1fc1e2d0                crc32_wd
 .text.print_size
                0x1fc1e2d4      0x138 lib/libgeneric.o
                0x1fc1e2d4                print_size
 .text.print_buffer
                0x1fc1e40c      0x1bc lib/libgeneric.o
                0x1fc1e40c                print_buffer
 .text.__div64_32
                0x1fc1e5c8       0xdc lib/libgeneric.o
                0x1fc1e5c8                __div64_32
 .text.gzfree   0x1fc1e6a4        0x8 lib/libgeneric.o
                0x1fc1e6a4                gzfree
 .text.gzalloc  0x1fc1e6ac       0x10 lib/libgeneric.o
                0x1fc1e6ac                gzalloc
 .text.zunzip   0x1fc1e6bc      0x10c lib/libgeneric.o
                0x1fc1e6bc                zunzip
 .text.gunzip   0x1fc1e7c8       0xbc lib/libgeneric.o
                0x1fc1e7c8                gunzip
 .text.hang     0x1fc1e884       0x1c lib/libgeneric.o
                0x1fc1e884                hang
 .text.cmpkey   0x1fc1e8a0       0x14 lib/libgeneric.o
 .text._hdelete.isra.1
                0x1fc1e8b4       0x50 lib/libgeneric.o
 .text.drop_var_from_set.part.2
                0x1fc1e904       0x50 lib/libgeneric.o
 .text.match_string.isra.3
                0x1fc1e954       0x64 lib/libgeneric.o
 .text.hcreate_r
                0x1fc1e9b8       0xb4 lib/libgeneric.o
                0x1fc1e9b8                hcreate_r
 .text.hdestroy_r
                0x1fc1ea6c       0x78 lib/libgeneric.o
                0x1fc1ea6c                hdestroy_r
 .text.hsearch_r
                0x1fc1eae4      0x49c lib/libgeneric.o
                0x1fc1eae4                hsearch_r
 .text.hdelete_r
                0x1fc1ef80       0xd4 lib/libgeneric.o
                0x1fc1ef80                hdelete_r
 .text.hexport_r
                0x1fc1f054      0x33c lib/libgeneric.o
                0x1fc1f054                hexport_r
 .text.himport_r
                0x1fc1f390      0x354 lib/libgeneric.o
                0x1fc1f390                himport_r
 .text.hwalk_r  0x1fc1f6e4       0x60 lib/libgeneric.o
                0x1fc1f6e4                hwalk_r
 .text.skip_spaces
                0x1fc1f744       0x30 lib/libgeneric.o
                0x1fc1f744                skip_spaces
 .text.strim    0x1fc1f774       0x68 lib/libgeneric.o
                0x1fc1f774                strim
 .text.lmb_add_region
                0x1fc1f7dc      0x1d0 lib/libgeneric.o
 .text.lmb_init
                0x1fc1f9ac       0x28 lib/libgeneric.o
                0x1fc1f9ac                lmb_init
 .text.lmb_add  0x1fc1f9d4        0x4 lib/libgeneric.o
                0x1fc1f9d4                lmb_add
 .text.lmb_free
                0x1fc1f9d8      0x10c lib/libgeneric.o
                0x1fc1f9d8                lmb_free
 .text.lmb_reserve
                0x1fc1fae4        0x8 lib/libgeneric.o
                0x1fc1fae4                lmb_reserve
 .text.lmb_overlaps_region
                0x1fc1faec       0x60 lib/libgeneric.o
                0x1fc1faec                lmb_overlaps_region
 .text.__lmb_alloc_base
                0x1fc1fb4c      0x110 lib/libgeneric.o
                0x1fc1fb4c                __lmb_alloc_base
 .text.lmb_alloc_base
                0x1fc1fc5c       0x34 lib/libgeneric.o
                0x1fc1fc5c                lmb_alloc_base
 .text.lmb_alloc
                0x1fc1fc90        0x8 lib/libgeneric.o
                0x1fc1fc90                lmb_alloc
 .text.__board_lmb_reserve
                0x1fc1fc98        0x4 lib/libgeneric.o
                0x1fc1fc98                board_lmb_reserve
                0x1fc1fc98                __board_lmb_reserve
 .text.byteReverse
                0x1fc1fc9c       0x2c lib/libgeneric.o
 .text.MD5Transform
                0x1fc1fcc8      0xa04 lib/libgeneric.o
 .text.MD5Update
                0x1fc206cc       0xe4 lib/libgeneric.o
 .text.MD5Final
                0x1fc207b0       0xc8 lib/libgeneric.o
 .text.md5_wd   0x1fc20878       0x68 lib/libgeneric.o
                0x1fc20878                md5_wd
 .text.string_to_ip
                0x1fc208e0       0x60 lib/libgeneric.o
                0x1fc208e0                string_to_ip
 .text.qsort    0x1fc20940       0xe0 lib/libgeneric.o
                0x1fc20940                qsort
 .text.sha1_process
                0x1fc20a20     0x1530 lib/libgeneric.o
 .text.sha1_update.part.0
                0x1fc21f50       0xbc lib/libgeneric.o
 .text.sha1_starts
                0x1fc2200c       0x4c lib/libgeneric.o
                0x1fc2200c                sha1_starts
 .text.sha1_update
                0x1fc22058        0xc lib/libgeneric.o
                0x1fc22058                sha1_update
 .text.sha1_finish
                0x1fc22064      0x140 lib/libgeneric.o
                0x1fc22064                sha1_finish
 .text.sha1_csum_wd
                0x1fc221a4       0x40 lib/libgeneric.o
                0x1fc221a4                sha1_csum_wd
 .text.strcpy   0x1fc221e4       0x1c lib/libgeneric.o
                0x1fc221e4                strcpy
 .text.strncpy  0x1fc22200       0x24 lib/libgeneric.o
                0x1fc22200                strncpy
 .text.strcat   0x1fc22224       0x30 lib/libgeneric.o
                0x1fc22224                strcat
 .text.strncat  0x1fc22254       0x54 lib/libgeneric.o
                0x1fc22254                strncat
 .text.strcmp   0x1fc222a8       0x2c lib/libgeneric.o
                0x1fc222a8                strcmp
 .text.strncmp  0x1fc222d4       0x40 lib/libgeneric.o
                0x1fc222d4                strncmp
 .text.strchr   0x1fc22314       0x34 lib/libgeneric.o
                0x1fc22314                strchr
 .text.strlen   0x1fc22348       0x20 lib/libgeneric.o
                0x1fc22348                strlen
 .text.strnlen  0x1fc22368       0x30 lib/libgeneric.o
                0x1fc22368                strnlen
 .text.strdup   0x1fc22398       0x38 lib/libgeneric.o
                0x1fc22398                strdup
 .text.strpbrk  0x1fc223d0       0x3c lib/libgeneric.o
                0x1fc223d0                strpbrk
 .text.memset   0x1fc2240c       0x6c lib/libgeneric.o
                0x1fc2240c                memset
 .text.memcpy   0x1fc22478       0x68 lib/libgeneric.o
                0x1fc22478                memcpy
 .text.memmove  0x1fc224e0       0x60 lib/libgeneric.o
                0x1fc224e0                memmove
 .text.memcmp   0x1fc22540       0x34 lib/libgeneric.o
                0x1fc22540                memcmp
 .text.strstr   0x1fc22574       0x64 lib/libgeneric.o
                0x1fc22574                strstr
 .text.memchr   0x1fc225d8       0x30 lib/libgeneric.o
                0x1fc225d8                memchr
 .text.udelay   0x1fc22608       0x30 lib/libgeneric.o
                0x1fc22608                udelay
 .text.put_dec_trunc
                0x1fc22638       0xdc lib/libgeneric.o
 .text.put_dec  0x1fc22714      0x130 lib/libgeneric.o
 .text.string.isra.0
                0x1fc22844       0xa0 lib/libgeneric.o
 .text.number.isra.4
                0x1fc228e4      0x264 lib/libgeneric.o
 .text.vsnprintf_internal.isra.6
                0x1fc22b48      0x614 lib/libgeneric.o
 .text.simple_strtoul
                0x1fc2315c       0xd0 lib/libgeneric.o
                0x1fc2315c                simple_strtoul
 .text.strict_strtoul
                0x1fc2322c       0x78 lib/libgeneric.o
                0x1fc2322c                strict_strtoul
 .text.simple_strtol
                0x1fc232a4       0x28 lib/libgeneric.o
                0x1fc232a4                simple_strtol
 .text.simple_strtoull
                0x1fc232cc       0xfc lib/libgeneric.o
                0x1fc232cc                simple_strtoull
 .text.vsprintf
                0x1fc233c8        0x4 lib/libgeneric.o
                0x1fc233c8                vsprintf
 .text.sprintf  0x1fc233cc       0x24 lib/libgeneric.o
                0x1fc233cc                sprintf
 .text.panic    0x1fc233f0       0x44 lib/libgeneric.o
                0x1fc233f0                panic
 .text.simple_itoa
                0x1fc23434       0x58 lib/libgeneric.o
                0x1fc23434                simple_itoa
 .text.zcfree   0x1fc2348c        0x8 lib/zlib/libz.o
                0x1fc2348c                zcfree
 .text.zcalloc  0x1fc23494        0x8 lib/zlib/libz.o
                0x1fc23494                zcalloc
 .text.inflate_fast
                0x1fc2349c      0x5d0 lib/zlib/libz.o
                0x1fc2349c                inflate_fast
 .text.inflate_table
                0x1fc23a6c      0x5b4 lib/zlib/libz.o
                0x1fc23a6c                inflate_table
 .text.inflateReset
                0x1fc24020       0x7c lib/zlib/libz.o
                0x1fc24020                inflateReset
 .text.inflateInit2_
                0x1fc2409c      0x104 lib/zlib/libz.o
                0x1fc2409c                inflateInit2_
 .text.inflateEnd
                0x1fc241a0       0x64 lib/zlib/libz.o
                0x1fc241a0                inflateEnd
 .text.adler32  0x1fc24204      0x33c lib/zlib/libz.o
                0x1fc24204                adler32
 .text.inflate  0x1fc24540     0x1648 lib/zlib/libz.o
                0x1fc24540                inflate
 .text.ArpInit  0x1fc25b88       0x50 net/libnet.o
                0x1fc25b88                ArpInit
 .text.arp_raw_request
                0x1fc25bd8       0xc0 net/libnet.o
                0x1fc25bd8                arp_raw_request
 .text.ArpRequest
                0x1fc25c98       0x80 net/libnet.o
                0x1fc25c98                ArpRequest
 .text.ArpTimeoutCheck
                0x1fc25d18       0x80 net/libnet.o
                0x1fc25d18                ArpTimeoutCheck
 .text.ArpReceive
                0x1fc25d98      0x220 net/libnet.o
                0x1fc25d98                ArpReceive
 .text.DhcpOptionsProcess
                0x1fc25fb8      0x228 net/libnet.o
 .text.DhcpHandler
                0x1fc261e0      0x42c net/libnet.o
 .text.BootpRequest
                0x1fc2660c      0x274 net/libnet.o
                0x1fc2660c                BootpRequest
 .text.BootpTimeout
                0x1fc26880       0x50 net/libnet.o
 .text.DhcpRequest
                0x1fc268d0        0x4 net/libnet.o
                0x1fc268d0                DhcpRequest
 .text.__def_eth_init
                0x1fc268d4        0x8 net/libnet.o
                0x1fc268d4                cpu_eth_init
 .text.eth_current_changed
                0x1fc268dc       0x60 net/libnet.o
 .text.eth_parse_enetaddr
                0x1fc2693c       0x50 net/libnet.o
                0x1fc2693c                eth_parse_enetaddr
 .text.eth_getenv_enetaddr
                0x1fc2698c       0x5c net/libnet.o
                0x1fc2698c                eth_getenv_enetaddr
 .text.eth_setenv_enetaddr
                0x1fc269e8       0x34 net/libnet.o
                0x1fc269e8                eth_setenv_enetaddr
 .text.eth_getenv_enetaddr_by_index
                0x1fc26a1c       0x50 net/libnet.o
                0x1fc26a1c                eth_getenv_enetaddr_by_index
 .text.eth_get_dev_by_index
                0x1fc26a6c       0x40 net/libnet.o
                0x1fc26a6c                eth_get_dev_by_index
 .text.eth_get_dev_index
                0x1fc26aac       0x1c net/libnet.o
                0x1fc26aac                eth_get_dev_index
 .text.eth_write_hwaddr
                0x1fc26ac8      0x1d8 net/libnet.o
                0x1fc26ac8                eth_write_hwaddr
 .text.eth_register
                0x1fc26ca0       0x7c net/libnet.o
                0x1fc26ca0                eth_register
 .text.eth_initialize
                0x1fc26d1c      0x1d4 net/libnet.o
                0x1fc26d1c                eth_initialize
 .text.eth_halt
                0x1fc26ef0       0x30 net/libnet.o
                0x1fc26ef0                eth_halt
 .text.eth_send
                0x1fc26f20       0x38 net/libnet.o
                0x1fc26f20                eth_send
 .text.eth_rx   0x1fc26f58       0x2c net/libnet.o
                0x1fc26f58                eth_rx
 .text.eth_try_another
                0x1fc26f84       0x88 net/libnet.o
                0x1fc26f84                eth_try_another
 .text.eth_init
                0x1fc2700c       0xcc net/libnet.o
                0x1fc2700c                eth_init
 .text.eth_set_current
                0x1fc270d8       0xac net/libnet.o
                0x1fc270d8                eth_set_current
 .text.eth_get_name
                0x1fc27184       0x20 net/libnet.o
                0x1fc27184                eth_get_name
 .text.startAgainTimeout
                0x1fc271a4       0x14 net/libnet.o
 .text.dummy_handler
                0x1fc271b8        0x4 net/libnet.o
 .text.net_clear_handlers
                0x1fc271bc       0x34 net/libnet.o
 .text.net_auto_load
                0x1fc271f0       0x38 net/libnet.o
                0x1fc271f0                net_auto_load
 .text.NetStartAgain
                0x1fc27228      0x15c net/libnet.o
                0x1fc27228                NetStartAgain
 .text.net_set_udp_handler
                0x1fc27384       0x20 net/libnet.o
                0x1fc27384                net_set_udp_handler
 .text.net_get_arp_handler
                0x1fc273a4       0x10 net/libnet.o
                0x1fc273a4                net_get_arp_handler
 .text.net_set_arp_handler
                0x1fc273b4       0x20 net/libnet.o
                0x1fc273b4                net_set_arp_handler
 .text.NetSetTimeout
                0x1fc273d4       0x4c net/libnet.o
                0x1fc273d4                NetSetTimeout
 .text.NetCksum
                0x1fc27420       0x34 net/libnet.o
                0x1fc27420                NetCksum
 .text.NetCksumOk
                0x1fc27454       0x20 net/libnet.o
                0x1fc27454                NetCksumOk
 .text.NetReceive
                0x1fc27474      0x300 net/libnet.o
                0x1fc27474                NetReceive
 .text.NetEthHdrSize
                0x1fc27774       0x3c net/libnet.o
                0x1fc27774                NetEthHdrSize
 .text.NetSetEther
                0x1fc277b0       0xa4 net/libnet.o
                0x1fc277b0                NetSetEther
 .text.net_update_ether
                0x1fc27854       0x84 net/libnet.o
                0x1fc27854                net_update_ether
 .text.net_set_ip_header
                0x1fc278d8       0x88 net/libnet.o
                0x1fc278d8                net_set_ip_header
 .text.net_set_udp_header
                0x1fc27960       0xa8 net/libnet.o
                0x1fc27960                net_set_udp_header
 .text.NetSendUDPPacket
                0x1fc27a08      0x110 net/libnet.o
                0x1fc27a08                NetSendUDPPacket
 .text.copy_filename
                0x1fc27b18       0x4c net/libnet.o
                0x1fc27b18                copy_filename
 .text.on_bootfile
                0x1fc27b64       0x2c net/libnet.o
 .text.ip_to_string
                0x1fc27b90       0x34 net/libnet.o
                0x1fc27b90                ip_to_string
 .text.string_to_VLAN
                0x1fc27bc4       0x4c net/libnet.o
                0x1fc27bc4                string_to_VLAN
 .text.getenv_VLAN
                0x1fc27c10       0x10 net/libnet.o
                0x1fc27c10                getenv_VLAN
 .text.NetInitLoop
                0x1fc27c20       0xf0 net/libnet.o
 .text.net_init
                0x1fc27d10       0x70 net/libnet.o
                0x1fc27d10                net_init
 .text.NetLoop  0x1fc27d80      0x398 net/libnet.o
                0x1fc27d80                NetLoop
 .text.ping_timeout
                0x1fc28118       0x1c net/libnet.o
 .text.ping_start
                0x1fc28134      0x128 net/libnet.o
                0x1fc28134                ping_start
 .text.ping_receive
                0x1fc2825c       0xec net/libnet.o
                0x1fc2825c                ping_receive
 .text.TftpSend
                0x1fc28348      0x1c4 net/libnet.o
 .text.TftpHandler
                0x1fc2850c      0x390 net/libnet.o
 .text.TftpTimeout
                0x1fc2889c       0x88 net/libnet.o
 .text.TftpStart
                0x1fc28924      0x348 net/libnet.o
                0x1fc28924                TftpStart
 .text.board_init
                0x1fc28c6c       0xc4 board/xilinx/zynq/libzynq.o
                0x1fc28c6c                board_init
 .text.board_eth_init
                0x1fc28d30       0x14 board/xilinx/zynq/libzynq.o
                0x1fc28d30                board_eth_init
 .text.board_mmc_init
                0x1fc28d44        0xc board/xilinx/zynq/libzynq.o
                0x1fc28d44                board_mmc_init
 .text.dram_init
                0x1fc28d50       0x18 board/xilinx/zynq/libzynq.o
                0x1fc28d50                dram_init
 .text.raise    0x1fc28d68       0x1c /home/xyin/Embedded_System_Lab/project_1_2_2/software/build/linux/u-boot/u-boot-plnx/arch/arm/lib/eabi_compat.o
                0x1fc28d68                raise
 .text.__aeabi_unwind_cpp_pr0
                0x1fc28d84        0x4 /home/xyin/Embedded_System_Lab/project_1_2_2/software/build/linux/u-boot/u-boot-plnx/arch/arm/lib/eabi_compat.o
                0x1fc28d84                __aeabi_unwind_cpp_pr0
 .text.__aeabi_unwind_cpp_pr1
                0x1fc28d88        0x4 /home/xyin/Embedded_System_Lab/project_1_2_2/software/build/linux/u-boot/u-boot-plnx/arch/arm/lib/eabi_compat.o
                0x1fc28d88                __aeabi_unwind_cpp_pr1
 .text          0x1fc28d8c      0x20c /opt/PetaLinux/petalinux-v2013.10-final/tools/linux-i386/arm-xilinx-linux-gnueabi/bin/../lib/gcc/arm-xilinx-linux-gnueabi/4.7.3/libgcc.a(_udivsi3.o)
                0x1fc28d8c                __udivsi3
                0x1fc28d8c                __aeabi_uidiv
                0x1fc28f78                __aeabi_uidivmod
 .text          0x1fc28f98      0x240 /opt/PetaLinux/petalinux-v2013.10-final/tools/linux-i386/arm-xilinx-linux-gnueabi/bin/../lib/gcc/arm-xilinx-linux-gnueabi/4.7.3/libgcc.a(_divsi3.o)
                0x1fc28f98                __aeabi_idiv
                0x1fc28f98                __divsi3
                0x1fc291b8                __aeabi_idivmod
 .text          0x1fc291d8       0x1c /opt/PetaLinux/petalinux-v2013.10-final/tools/linux-i386/arm-xilinx-linux-gnueabi/bin/../lib/gcc/arm-xilinx-linux-gnueabi/4.7.3/libgcc.a(_lshrdi3.o)
                0x1fc291d8                __aeabi_llsr
                0x1fc291d8                __lshrdi3
 .text          0x1fc291f4       0x1c /opt/PetaLinux/petalinux-v2013.10-final/tools/linux-i386/arm-xilinx-linux-gnueabi/bin/../lib/gcc/arm-xilinx-linux-gnueabi/4.7.3/libgcc.a(_ashldi3.o)
                0x1fc291f4                __ashldi3
                0x1fc291f4                __aeabi_llsl
 .text          0x1fc29210       0x3c /opt/PetaLinux/petalinux-v2013.10-final/tools/linux-i386/arm-xilinx-linux-gnueabi/bin/../lib/gcc/arm-xilinx-linux-gnueabi/4.7.3/libgcc.a(_aeabi_uldivmod.o)
                0x1fc29210                __aeabi_uldivmod
 .text          0x1fc2924c       0x10 /opt/PetaLinux/petalinux-v2013.10-final/tools/linux-i386/arm-xilinx-linux-gnueabi/bin/../lib/gcc/arm-xilinx-linux-gnueabi/4.7.3/libgcc.a(_dvmd_lnx.o)
                0x1fc2924c                __aeabi_ldiv0
                0x1fc2924c                __aeabi_idiv0
 .text          0x1fc2925c       0x78 /opt/PetaLinux/petalinux-v2013.10-final/tools/linux-i386/arm-xilinx-linux-gnueabi/bin/../lib/gcc/arm-xilinx-linux-gnueabi/4.7.3/libgcc.a(bpabi.o)
                0x1fc2925c                __gnu_ldivmod_helper
                0x1fc29298                __gnu_uldivmod_helper
 .text          0x1fc292d4      0x4bc /opt/PetaLinux/petalinux-v2013.10-final/tools/linux-i386/arm-xilinx-linux-gnueabi/bin/../lib/gcc/arm-xilinx-linux-gnueabi/4.7.3/libgcc.a(_divdi3.o)
                0x1fc292d4                __divdi3
 .text          0x1fc29790      0x44c /opt/PetaLinux/petalinux-v2013.10-final/tools/linux-i386/arm-xilinx-linux-gnueabi/bin/../lib/gcc/arm-xilinx-linux-gnueabi/4.7.3/libgcc.a(_udivdi3.o)
                0x1fc29790                __udivdi3

.glue_7         0x1fc29bdc        0x0
 .glue_7        0x00000000        0x0 linker stubs

.glue_7t        0x1fc29bdc        0x0
 .glue_7t       0x00000000        0x0 linker stubs

.vfp11_veneer   0x1fc29bdc        0x0
 .vfp11_veneer  0x00000000        0x0 linker stubs

.v4_bx          0x1fc29bdc        0x0
 .v4_bx         0x00000000        0x0 linker stubs

.iplt           0x1fc29bdc        0x0
 .iplt          0x00000000        0x0 arch/arm/cpu/armv7/start.o
                0x1fc29bdc                . = ALIGN (0x4)

.rodata         0x1fc29bdc     0xa49b
 *(SORT(.rodata*))
 .rodata        0x1fc29bdc       0x80 arch/arm/lib/libarm.o
 .rodata.CSWTCH.26
                0x1fc29c5c       0x20 common/libcommon.o
 .rodata.baudrate_table
                0x1fc29c7c       0x2c drivers/serial/libserial.o
 .rodata.bin_format
                0x1fc29ca8       0x34 drivers/fpga/libfpga.o
 .rodata.block_drvr
                0x1fc29cdc       0x10 disk/libdisk.o
 .rodata.boot_os
                0x1fc29cec       0x60 common/libcommon.o
 .rodata.crc_table
                0x1fc29d4c      0x400 lib/libgeneric.o
 .rodata.env_flags_varaccess_mask
                0x1fc2a14c       0x10 common/libcommon.o
 .rodata.ext_csd_bits.7291
                0x1fc2a15c        0xc drivers/mmc/libmmc.o
 .rodata.ext_to_hostcaps.7292
                0x1fc2a168        0xc drivers/mmc/libmmc.o
 .rodata.fbase  0x1fc2a174       0x10 drivers/mmc/libmmc.o
 .rodata.fdt_errtable
                0x1fc2a184       0x34 lib/libfdt/libfdt.o
 .rodata.flashes
                0x1fc2a1b8       0x20 drivers/mtd/spi/libspi_flash.o
 .rodata.mio_periphs
                0x1fc2a1d8       0x64 arch/arm/cpu/armv7/zynq/libzynq.o
 .rodata.multipliers
                0x1fc2a23c       0x40 drivers/mmc/libmmc.o
 .rodata.nand16_pins
                0x1fc2a27c       0x20 arch/arm/cpu/armv7/zynq/libzynq.o
 .rodata.nand8_pins
                0x1fc2a29c       0x34 arch/arm/cpu/armv7/zynq/libzynq.o
 .rodata.offsets.8821
                0x1fc2a2d0       0x10 drivers/spi/libspi.o
 .rodata.op_table
                0x1fc2a2e0       0x68 common/libcommon.o
 .rodata.qspi0_pins
                0x1fc2a348       0x18 arch/arm/cpu/armv7/zynq/libzynq.o
 .rodata.qspi1_cs_pin
                0x1fc2a360        0x4 arch/arm/cpu/armv7/zynq/libzynq.o
 .rodata.qspi1_pins
                0x1fc2a364       0x14 arch/arm/cpu/armv7/zynq/libzynq.o
 .rodata.spansion_spi_flash_table
                0x1fc2a378       0xd0 drivers/mtd/spi/libspi_flash.o
 .rodata.spi_read_cmds_array
                0x1fc2a448       0x3c drivers/mtd/spi/libspi_flash.o
 .rodata.spi_write_cmds_array
                0x1fc2a484       0x18 drivers/mtd/spi/libspi_flash.o
 .rodata.stmicro_spi_flash_table
                0x1fc2a49c       0xf0 drivers/mtd/spi/libspi_flash.o
 .rodata.uart_zynq_ports
                0x1fc2a58c        0x8 drivers/serial/libserial.o
 .rodata.uart_zynq_ports_param
                0x1fc2a594       0x10 drivers/serial/libserial.o
 .rodata.uimage_arch
                0x1fc2a5a4      0x108 common/libcommon.o
 .rodata.uimage_comp
                0x1fc2a6ac       0x48 common/libcommon.o
 .rodata.uimage_os
                0x1fc2a6f4       0x60 common/libcommon.o
 .rodata.uimage_type
                0x1fc2a754       0xcc common/libcommon.o
 .rodata.widths.7293
                0x1fc2a820        0xc drivers/mmc/libmmc.o
 .rodata.winbond_spi_flash_table
                0x1fc2a82c       0xd8 drivers/mtd/spi/libspi_flash.o
 .rodata.crc16_tab
                0x1fc2a904      0x200 lib/libgeneric.o
 .rodata.dbase.7100
                0x1fc2ab04       0x40 lib/zlib/libz.o
 .rodata.dext.7101
                0x1fc2ab44       0x40 lib/zlib/libz.o
 .rodata.distfix
                0x1fc2ab84       0x80 lib/zlib/libz.o
 .rodata.lbase.7098
                0x1fc2ac04       0x3e lib/zlib/libz.o
 .rodata.lenfix
                0x1fc2ac42      0x800 lib/zlib/libz.o
 .rodata.lext.7099
                0x1fc2b442       0x3e lib/zlib/libz.o
 .rodata.order.7194
                0x1fc2b480       0x26 lib/zlib/libz.o
 .rodata        0x1fc2b4a6        0x3 common/libcommon.o
 .rodata        0x1fc2b4a9        0xe net/libnet.o
 .rodata.CSWTCH.23
                0x1fc2b4b7       0x16 common/libcommon.o
 .rodata.__FUNCTION__.6957
                0x1fc2b4cd        0xc drivers/fpga/libfpga.o
 .rodata.__FUNCTION__.6970
                0x1fc2b4d9        0xc drivers/fpga/libfpga.o
 .rodata.__FUNCTION__.6981
                0x1fc2b4e5        0xc drivers/fpga/libfpga.o
 .rodata.__FUNCTION__.7106
                0x1fc2b4f1       0x17 common/libcommon.o
 .rodata.__FUNCTION__.7364
                0x1fc2b508       0x10 common/libcommon.o
 .rodata.__func__.6805
                0x1fc2b518       0x16 arch/arm/cpu/armv7/libarmv7.o
 .rodata.__func__.6930
                0x1fc2b52e       0x10 common/libcommon.o
 .rodata.__func__.6938
                0x1fc2b53e       0x13 drivers/fpga/libfpga.o
 .rodata.__func__.6941
                0x1fc2b551        0xb common/libcommon.o
 .rodata.__func__.6980
                0x1fc2b55c        0xf fs/ext4/libext4fs.o
 .rodata.__func__.6991
                0x1fc2b56b        0xe drivers/fpga/libfpga.o
 .rodata.__func__.7009
                0x1fc2b579        0x9 drivers/fpga/libfpga.o
 .rodata.__func__.7022
                0x1fc2b582        0xa drivers/fpga/libfpga.o
 .rodata.__func__.7035
                0x1fc2b58c        0xa drivers/fpga/libfpga.o
 .rodata.__func__.7038
                0x1fc2b596        0x8 common/libcommon.o
 .rodata.__func__.7048
                0x1fc2b59e        0xa drivers/fpga/libfpga.o
 .rodata.__func__.7126
                0x1fc2b5a8        0xe common/libcommon.o
 .rodata.__func__.7160
                0x1fc2b5b6        0xe common/libcommon.o
 .rodata.__func__.7213
                0x1fc2b5c4       0x11 drivers/net/phy/libphy.o
 .rodata.__func__.7864
                0x1fc2b5d5        0xa drivers/fpga/libfpga.o
 .rodata.__func__.8353
                0x1fc2b5df        0xa drivers/net/libnet.o
 .rodata.__func__.8807
                0x1fc2b5e9       0x19 drivers/spi/libspi.o
 .rodata.__func__.8838
                0x1fc2b602       0x13 drivers/spi/libspi.o
 .rodata.__func__.8942
                0x1fc2b615       0x10 drivers/spi/libspi.o
 .rodata._ctype
                0x1fc2b625      0x100 lib/libgeneric.o
                0x1fc2b625                _ctype
 .rodata.default_environment
                0x1fc2b725      0xcd2 common/libcommon.o
                0x1fc2b725                default_environment
 .rodata.delims.6809
                0x1fc2c3f7        0x3 common/libcommon.o
 .rodata.digits.6813
                0x1fc2c3fa       0x10 lib/libgeneric.o
 .rodata.env_flags_varaccess_rep
                0x1fc2c40a        0x5 common/libcommon.o
 .rodata.env_flags_vartype_rep
                0x1fc2c40f        0x7 common/libcommon.o
 .rodata.erase_seq
                0x1fc2c416        0x4 common/libcommon.o
 .rodata.hex_asc
                0x1fc2c41a       0x11 lib/libgeneric.o
 .rodata.names.6814
                0x1fc2c42b        0x6 lib/libgeneric.o
 .rodata.sha1_padding
                0x1fc2c431       0x40 lib/libgeneric.o
 .rodata.str1.1
                0x1fc2c471       0x65 arch/arm/cpu/armv7/libarmv7.o
 .rodata.str1.1
                0x1fc2c4d6       0x65 arch/arm/cpu/armv7/zynq/libzynq.o
 .rodata.str1.1
                0x1fc2c53b      0x38f arch/arm/lib/libarm.o
                                0x3ad (size before relaxing)
 .rodata.str1.1
                0x1fc2c8ca     0x5114 common/libcommon.o
                               0x56b9 (size before relaxing)
 .rodata.str1.1
                0x1fc319de      0x403 disk/libdisk.o
                                0x432 (size before relaxing)
 .rodata.str1.1
                0x1fc31de1      0x769 drivers/fpga/libfpga.o
                                0x77d (size before relaxing)
 .rodata.str1.1
                0x1fc3254a      0x2ce drivers/mmc/libmmc.o
                                0x2dd (size before relaxing)
 .rodata.str1.1
                0x1fc32818      0x2df drivers/mtd/spi/libspi_flash.o
                                0x2e2 (size before relaxing)
 .rodata.str1.1
                0x1fc32af7       0xa7 drivers/net/libnet.o
                                 0xb6 (size before relaxing)
 .rodata.str1.1
                0x1fc32b9e      0x1ce drivers/net/phy/libphy.o
                                0x1e3 (size before relaxing)
 .rodata.str1.1
                0x1fc32d6c       0x57 drivers/serial/libserial.o
                                 0x92 (size before relaxing)
 .rodata.str1.1
                0x1fc32dc3       0x77 drivers/spi/libspi.o
                                 0x99 (size before relaxing)
 .rodata.str1.1
                0x1fc32e3a      0x369 fs/ext4/libext4fs.o
                                0x370 (size before relaxing)
 .rodata.str1.1
                0x1fc331a3      0x1e7 fs/fat/libfat.o
                                0x214 (size before relaxing)
 .rodata.str1.1
                0x1fc3338a       0x9e fs/libfs.o
                                 0xd7 (size before relaxing)
 .rodata.str1.1
                0x1fc33428       0xf1 lib/libfdt/libfdt.o
                                0x11c (size before relaxing)
 .rodata.str1.1
                0x1fc33519      0x232 lib/libgeneric.o
                                0x253 (size before relaxing)
 .rodata.str1.1
                0x1fc3374b      0x21c lib/zlib/libz.o
                                0x21d (size before relaxing)
 .rodata.str1.1
                0x1fc33967      0x673 net/libnet.o
                                0x73b (size before relaxing)
 .rodata.str1.1
                0x1fc33fda       0x51 board/xilinx/zynq/libzynq.o
                                 0x52 (size before relaxing)
 .rodata.str1.1
                0x1fc3402b       0x1b /home/xyin/Embedded_System_Lab/project_1_2_2/software/build/linux/u-boot/u-boot-plnx/arch/arm/lib/eabi_compat.o
 .rodata.tab_seq
                0x1fc34046        0x9 common/libcommon.o
 .rodata.version_string
                0x1fc3404f       0x28 common/libcommon.o
                0x1fc3404f                version_string

.hash           0x1fc34078       0x2c
 .hash          0x1fc34078       0x2c arch/arm/cpu/armv7/start.o

.ARM.extab      0x1fc340a4        0xc
 .ARM.extab     0x1fc340a4        0xc /opt/PetaLinux/petalinux-v2013.10-final/tools/linux-i386/arm-xilinx-linux-gnueabi/bin/../lib/gcc/arm-xilinx-linux-gnueabi/4.7.3/libgcc.a(bpabi.o)
                0x1fc340b0                . = ALIGN (0x4)

.data           0x1fc340b0     0x187c
 *(.data*)
 .data.slcr_lock
                0x1fc340b0        0x4 arch/arm/cpu/armv7/zynq/libzynq.o
 .data.init_sequence
                0x1fc340b4       0x28 arch/arm/lib/libarm.o
                0x1fc340b4                init_sequence
 .data.bootm_help_text
                0x1fc340dc      0x4ce common/libcommon.o
 *fill*         0x1fc345aa        0x2 
 .data.cmd_bootm_sub
                0x1fc345ac       0xd8 common/libcommon.o
 .data.tabs.6964
                0x1fc34684       0x21 common/libcommon.o
 .data.root.6881
                0x1fc346a5        0x2 common/libcommon.o
 .data.fdt_help_text
                0x1fc346a7      0x5e3 common/libcommon.o
 *fill*         0x1fc34c8a        0x2 
 .data.do_echo  0x1fc34c8c        0x4 common/libcommon.o
 .data.dp_last_length
                0x1fc34c90        0x4 common/libcommon.o
 .data.curr_device
                0x1fc34c94        0x4 common/libcommon.o
 .data.env_help_text
                0x1fc34c98      0x255 common/libcommon.o
 *fill*         0x1fc34eed        0x3 
 .data.env_id   0x1fc34ef0        0x4 common/libcommon.o
 .data.cmd_env_sub
                0x1fc34ef4       0xf0 common/libcommon.o
 .data.source_help_text
                0x1fc34fe4       0xac common/libcommon.o
 .data.imgextract_help_text
                0x1fc35090       0xb2 common/libcommon.o
 *fill*         0x1fc35142        0x2 
 .data.av_      0x1fc35144      0x408 common/libcommon.o
 .data.sbrk_base
                0x1fc3554c        0x4 common/libcommon.o
 .data.trim_threshold
                0x1fc35550        0x4 common/libcommon.o
 .data.env_htab
                0x1fc35554       0x10 common/libcommon.o
                0x1fc35554                env_htab
 .data.env_name_spec
                0x1fc35564        0x4 common/libcommon.o
                0x1fc35564                env_name_spec
 .data.reserved_list
                0x1fc35568       0x84 common/libcommon.o
 .data.hist_cur
                0x1fc355ec        0x4 common/libcommon.o
 .data.stdio_names
                0x1fc355f0        0xc common/libcommon.o
                0x1fc355f0                stdio_names
 .data.next_desc
                0x1fc355fc        0x4 drivers/fpga/libfpga.o
 .data.cur_dev_num
                0x1fc35600        0x4 drivers/mmc/libmmc.o
 .data.phy_drivers
                0x1fc35604        0x8 drivers/net/phy/libphy.o
 .data.genphy_driver
                0x1fc3560c       0x2c drivers/net/phy/libphy.o
 .data.M88E1310_driver
                0x1fc35638       0x2c drivers/net/phy/libphy.o
 .data.M88E1111S_driver
                0x1fc35664       0x2c drivers/net/phy/libphy.o
 .data.M88E1011S_driver
                0x1fc35690       0x2c drivers/net/phy/libphy.o
 .data.M88E1118_driver
                0x1fc356bc       0x2c drivers/net/phy/libphy.o
 .data.M88E1518_driver
                0x1fc356e8       0x2c drivers/net/phy/libphy.o
 .data.M88E1145_driver
                0x1fc35714       0x2c drivers/net/phy/libphy.o
 .data.M88E1149S_driver
                0x1fc35740       0x2c drivers/net/phy/libphy.o
 .data.M88E1121R_driver
                0x1fc3576c       0x2c drivers/net/phy/libphy.o
 .data.M88E1118R_driver
                0x1fc35798       0x2c drivers/net/phy/libphy.o
 .data.uart_zynq_serial0_device
                0x1fc357c4       0x30 drivers/serial/libserial.o
                0x1fc357c4                uart_zynq_serial0_device
 .data.flash_inst
                0x1fc357f4       0x45 drivers/spi/libspi.o
 *fill*         0x1fc35839        0x3 
 .data.ext4fs_indir3_blkno
                0x1fc3583c        0x4 fs/ext4/libext4fs.o
                0x1fc3583c                ext4fs_indir3_blkno
 .data.ext4fs_indir1_blkno
                0x1fc35840        0x4 fs/ext4/libext4fs.o
                0x1fc35840                ext4fs_indir1_blkno
 .data.ext4fs_indir2_blkno
                0x1fc35844        0x4 fs/ext4/libext4fs.o
                0x1fc35844                ext4fs_indir2_blkno
 .data.fstypes  0x1fc35848       0x48 fs/libfs.o
 .data.NetOurNativeVLAN
                0x1fc35890        0x2 net/libnet.o
                0x1fc35890                NetOurNativeVLAN
 .data.NetBcastAddr
                0x1fc35892        0x6 net/libnet.o
                0x1fc35892                NetBcastAddr
 .data.NetOurVLAN
                0x1fc35898        0x2 net/libnet.o
                0x1fc35898                NetOurVLAN
 *fill*         0x1fc3589a        0x2 
 .data.first_call.6990
                0x1fc3589c        0x4 net/libnet.o
 .data.TftpTimeoutCountMax
                0x1fc358a0        0x4 net/libnet.o
 .data.TftpRRQTimeoutCountMax
                0x1fc358a4        0x4 net/libnet.o
                0x1fc358a4                TftpRRQTimeoutCountMax
 .data.TftpBlkSizeOption
                0x1fc358a8        0x2 net/libnet.o
 *fill*         0x1fc358aa        0x2 
 .data.TftpTimeoutMSecs
                0x1fc358ac        0x4 net/libnet.o
 .data.TftpBlkSize
                0x1fc358b0        0x2 net/libnet.o
 *fill*         0x1fc358b2        0x2 
 .data.fpga010  0x1fc358b4       0x18 board/xilinx/zynq/libzynq.o
                0x1fc358b4                fpga010
 .data.fpga020  0x1fc358cc       0x18 board/xilinx/zynq/libzynq.o
                0x1fc358cc                fpga020
 .data.fpga100  0x1fc358e4       0x18 board/xilinx/zynq/libzynq.o
                0x1fc358e4                fpga100
 .data.fpga030  0x1fc358fc       0x18 board/xilinx/zynq/libzynq.o
                0x1fc358fc                fpga030
 .data.fpga045  0x1fc35914       0x18 board/xilinx/zynq/libzynq.o
                0x1fc35914                fpga045

.got            0x1fc3592c        0x0
 .got           0x00000000        0x0 arch/arm/cpu/armv7/start.o

.got.plt        0x1fc3592c        0xc
 .got.plt       0x1fc3592c        0xc arch/arm/cpu/armv7/start.o
                0x1fc3592c                _GLOBAL_OFFSET_TABLE_

.igot.plt       0x1fc35938        0x0
 .igot.plt      0x00000000        0x0 arch/arm/cpu/armv7/start.o
                0x1fc35938                . = ALIGN (0x4)
                0x1fc35938                . = .
                0x1fc35938                . = ALIGN (0x4)

.u_boot_list    0x1fc35938      0x5a0
 *(SORT(.u_boot_list*))
 .u_boot_list_2_cmd_1
                0x1fc35938        0x0 common/libcommon.o
 .u_boot_list_2_cmd_2_askenv
                0x1fc35938       0x18 common/libcommon.o
                0x1fc35938                _u_boot_list_2_cmd_2_askenv
 .u_boot_list_2_cmd_2_base
                0x1fc35950       0x18 common/libcommon.o
                0x1fc35950                _u_boot_list_2_cmd_2_base
 .u_boot_list_2_cmd_2_bdinfo
                0x1fc35968       0x18 common/libcommon.o
                0x1fc35968                _u_boot_list_2_cmd_2_bdinfo
 .u_boot_list_2_cmd_2_boot
                0x1fc35980       0x18 common/libcommon.o
                0x1fc35980                _u_boot_list_2_cmd_2_boot
 .u_boot_list_2_cmd_2_bootd
                0x1fc35998       0x18 common/libcommon.o
                0x1fc35998                _u_boot_list_2_cmd_2_bootd
 .u_boot_list_2_cmd_2_bootm
                0x1fc359b0       0x18 common/libcommon.o
                0x1fc359b0                _u_boot_list_2_cmd_2_bootm
 .u_boot_list_2_cmd_2_bootp
                0x1fc359c8       0x18 common/libcommon.o
                0x1fc359c8                _u_boot_list_2_cmd_2_bootp
 .u_boot_list_2_cmd_2_cmp
                0x1fc359e0       0x18 common/libcommon.o
                0x1fc359e0                _u_boot_list_2_cmd_2_cmp
 .u_boot_list_2_cmd_2_coninfo
                0x1fc359f8       0x18 common/libcommon.o
                0x1fc359f8                _u_boot_list_2_cmd_2_coninfo
 .u_boot_list_2_cmd_2_cp
                0x1fc35a10       0x18 common/libcommon.o
                0x1fc35a10                _u_boot_list_2_cmd_2_cp
 .u_boot_list_2_cmd_2_crc32
                0x1fc35a28       0x18 common/libcommon.o
                0x1fc35a28                _u_boot_list_2_cmd_2_crc32
 .u_boot_list_2_cmd_2_dcache
                0x1fc35a40       0x18 common/libcommon.o
                0x1fc35a40                _u_boot_list_2_cmd_2_dcache
 .u_boot_list_2_cmd_2_dhcp
                0x1fc35a58       0x18 common/libcommon.o
                0x1fc35a58                _u_boot_list_2_cmd_2_dhcp
 .u_boot_list_2_cmd_2_echo
                0x1fc35a70       0x18 common/libcommon.o
                0x1fc35a70                _u_boot_list_2_cmd_2_echo
 .u_boot_list_2_cmd_2_editenv
                0x1fc35a88       0x18 common/libcommon.o
                0x1fc35a88                _u_boot_list_2_cmd_2_editenv
 .u_boot_list_2_cmd_2_env
                0x1fc35aa0       0x18 common/libcommon.o
                0x1fc35aa0                _u_boot_list_2_cmd_2_env
 .u_boot_list_2_cmd_2_exit
                0x1fc35ab8       0x18 common/libcommon.o
                0x1fc35ab8                _u_boot_list_2_cmd_2_exit
 .u_boot_list_2_cmd_2_ext2load
                0x1fc35ad0       0x18 common/libcommon.o
                0x1fc35ad0                _u_boot_list_2_cmd_2_ext2load
 .u_boot_list_2_cmd_2_ext2ls
                0x1fc35ae8       0x18 common/libcommon.o
                0x1fc35ae8                _u_boot_list_2_cmd_2_ext2ls
 .u_boot_list_2_cmd_2_false
                0x1fc35b00       0x18 common/libcommon.o
                0x1fc35b00                _u_boot_list_2_cmd_2_false
 .u_boot_list_2_cmd_2_fatinfo
                0x1fc35b18       0x18 common/libcommon.o
                0x1fc35b18                _u_boot_list_2_cmd_2_fatinfo
 .u_boot_list_2_cmd_2_fatload
                0x1fc35b30       0x18 common/libcommon.o
                0x1fc35b30                _u_boot_list_2_cmd_2_fatload
 .u_boot_list_2_cmd_2_fatls
                0x1fc35b48       0x18 common/libcommon.o
                0x1fc35b48                _u_boot_list_2_cmd_2_fatls
 .u_boot_list_2_cmd_2_fdt
                0x1fc35b60       0x18 common/libcommon.o
                0x1fc35b60                _u_boot_list_2_cmd_2_fdt
 .u_boot_list_2_cmd_2_fpga
                0x1fc35b78       0x18 common/libcommon.o
                0x1fc35b78                _u_boot_list_2_cmd_2_fpga
 .u_boot_list_2_cmd_2_go
                0x1fc35b90       0x18 common/libcommon.o
                0x1fc35b90                _u_boot_list_2_cmd_2_go
 .u_boot_list_2_cmd_2_help
                0x1fc35ba8       0x18 common/libcommon.o
                0x1fc35ba8                _u_boot_list_2_cmd_2_help
 .u_boot_list_2_cmd_2_icache
                0x1fc35bc0       0x18 common/libcommon.o
                0x1fc35bc0                _u_boot_list_2_cmd_2_icache
 .u_boot_list_2_cmd_2_iminfo
                0x1fc35bd8       0x18 common/libcommon.o
                0x1fc35bd8                _u_boot_list_2_cmd_2_iminfo
 .u_boot_list_2_cmd_2_imxtract
                0x1fc35bf0       0x18 common/libcommon.o
                0x1fc35bf0                _u_boot_list_2_cmd_2_imxtract
 .u_boot_list_2_cmd_2_itest
                0x1fc35c08       0x18 common/libcommon.o
                0x1fc35c08                _u_boot_list_2_cmd_2_itest
 .u_boot_list_2_cmd_2_loadb
                0x1fc35c20       0x18 common/libcommon.o
                0x1fc35c20                _u_boot_list_2_cmd_2_loadb
 .u_boot_list_2_cmd_2_loads
                0x1fc35c38       0x18 common/libcommon.o
                0x1fc35c38                _u_boot_list_2_cmd_2_loads
 .u_boot_list_2_cmd_2_loady
                0x1fc35c50       0x18 common/libcommon.o
                0x1fc35c50                _u_boot_list_2_cmd_2_loady
 .u_boot_list_2_cmd_2_loop
                0x1fc35c68       0x18 common/libcommon.o
                0x1fc35c68                _u_boot_list_2_cmd_2_loop
 .u_boot_list_2_cmd_2_md
                0x1fc35c80       0x18 common/libcommon.o
                0x1fc35c80                _u_boot_list_2_cmd_2_md
 .u_boot_list_2_cmd_2_mm
                0x1fc35c98       0x18 common/libcommon.o
                0x1fc35c98                _u_boot_list_2_cmd_2_mm
 .u_boot_list_2_cmd_2_mmc
                0x1fc35cb0       0x18 common/libcommon.o
                0x1fc35cb0                _u_boot_list_2_cmd_2_mmc
 .u_boot_list_2_cmd_2_mmcinfo
                0x1fc35cc8       0x18 common/libcommon.o
                0x1fc35cc8                _u_boot_list_2_cmd_2_mmcinfo
 .u_boot_list_2_cmd_2_mw
                0x1fc35ce0       0x18 common/libcommon.o
                0x1fc35ce0                _u_boot_list_2_cmd_2_mw
 .u_boot_list_2_cmd_2_nm
                0x1fc35cf8       0x18 common/libcommon.o
                0x1fc35cf8                _u_boot_list_2_cmd_2_nm
 .u_boot_list_2_cmd_2_ping
                0x1fc35d10       0x18 common/libcommon.o
                0x1fc35d10                _u_boot_list_2_cmd_2_ping
 .u_boot_list_2_cmd_2_printenv
                0x1fc35d28       0x18 common/libcommon.o
                0x1fc35d28                _u_boot_list_2_cmd_2_printenv
 .u_boot_list_2_cmd_2_question_mark
                0x1fc35d40       0x18 common/libcommon.o
                0x1fc35d40                _u_boot_list_2_cmd_2_question_mark
 .u_boot_list_2_cmd_2_reset
                0x1fc35d58       0x18 common/libcommon.o
                0x1fc35d58                _u_boot_list_2_cmd_2_reset
 .u_boot_list_2_cmd_2_run
                0x1fc35d70       0x18 common/libcommon.o
                0x1fc35d70                _u_boot_list_2_cmd_2_run
 .u_boot_list_2_cmd_2_saveenv
                0x1fc35d88       0x18 common/libcommon.o
                0x1fc35d88                _u_boot_list_2_cmd_2_saveenv
 .u_boot_list_2_cmd_2_saves
                0x1fc35da0       0x18 common/libcommon.o
                0x1fc35da0                _u_boot_list_2_cmd_2_saves
 .u_boot_list_2_cmd_2_setenv
                0x1fc35db8       0x18 common/libcommon.o
                0x1fc35db8                _u_boot_list_2_cmd_2_setenv
 .u_boot_list_2_cmd_2_sf
                0x1fc35dd0       0x18 common/libcommon.o
                0x1fc35dd0                _u_boot_list_2_cmd_2_sf
 .u_boot_list_2_cmd_2_showvar
                0x1fc35de8       0x18 common/libcommon.o
                0x1fc35de8                _u_boot_list_2_cmd_2_showvar
 .u_boot_list_2_cmd_2_sleep
                0x1fc35e00       0x18 common/libcommon.o
                0x1fc35e00                _u_boot_list_2_cmd_2_sleep
 .u_boot_list_2_cmd_2_source
                0x1fc35e18       0x18 common/libcommon.o
                0x1fc35e18                _u_boot_list_2_cmd_2_source
 .u_boot_list_2_cmd_2_sspi
                0x1fc35e30       0x18 common/libcommon.o
                0x1fc35e30                _u_boot_list_2_cmd_2_sspi
 .u_boot_list_2_cmd_2_test
                0x1fc35e48       0x18 common/libcommon.o
                0x1fc35e48                _u_boot_list_2_cmd_2_test
 .u_boot_list_2_cmd_2_tftpboot
                0x1fc35e60       0x18 common/libcommon.o
                0x1fc35e60                _u_boot_list_2_cmd_2_tftpboot
 .u_boot_list_2_cmd_2_true
                0x1fc35e78       0x18 common/libcommon.o
                0x1fc35e78                _u_boot_list_2_cmd_2_true
 .u_boot_list_2_cmd_2_version
                0x1fc35e90       0x18 common/libcommon.o
                0x1fc35e90                _u_boot_list_2_cmd_2_version
 .u_boot_list_2_cmd_3
                0x1fc35ea8        0x0 common/libcommon.o
 .u_boot_list_2_env_clbk_1
                0x1fc35ea8        0x0 common/libcommon.o
 .u_boot_list_2_env_clbk_2_baudrate
                0x1fc35ea8        0x8 drivers/serial/libserial.o
                0x1fc35ea8                _u_boot_list_2_env_clbk_2_baudrate
 .u_boot_list_2_env_clbk_2_bootfile
                0x1fc35eb0        0x8 net/libnet.o
                0x1fc35eb0                _u_boot_list_2_env_clbk_2_bootfile
 .u_boot_list_2_env_clbk_2_callbacks
                0x1fc35eb8        0x8 common/libcommon.o
                0x1fc35eb8                _u_boot_list_2_env_clbk_2_callbacks
 .u_boot_list_2_env_clbk_2_console
                0x1fc35ec0        0x8 common/libcommon.o
                0x1fc35ec0                _u_boot_list_2_env_clbk_2_console
 .u_boot_list_2_env_clbk_2_flags
                0x1fc35ec8        0x8 common/libcommon.o
                0x1fc35ec8                _u_boot_list_2_env_clbk_2_flags
 .u_boot_list_2_env_clbk_2_loadaddr
                0x1fc35ed0        0x8 common/libcommon.o
                0x1fc35ed0                _u_boot_list_2_env_clbk_2_loadaddr
 .u_boot_list_2_env_clbk_3
                0x1fc35ed8        0x0 common/libcommon.o
                0x1fc35ed8                . = ALIGN (0x4)

.image_copy_end
                0x1fc35ed8        0x0
 *(.__image_copy_end)
 .__image_copy_end
                0x1fc35ed8        0x0 arch/arm/lib/libarm.o

.rel_dyn_start  0x1fc35ed8        0x0
 *(.__rel_dyn_start)
 .__rel_dyn_start
                0x1fc35ed8        0x0 arch/arm/lib/libarm.o

.rel.dyn        0x1fc35ed8     0x6028
 *(.rel*)
 .rel.got       0x00000000        0x0 arch/arm/cpu/armv7/start.o
 .rel.plt       0x00000000        0x0 arch/arm/cpu/armv7/start.o
 .rel.iplt      0x00000000        0x0 arch/arm/cpu/armv7/start.o
 .rel.text      0x1fc35ed8       0x78 arch/arm/cpu/armv7/start.o
 .rel.text.v7_dcache_inval_range
                0x1fc35f50       0x18 arch/arm/cpu/armv7/start.o
 .rel.text.zynq_ddrc_init
                0x1fc35f68       0x10 arch/arm/cpu/armv7/start.o
 .rel.text.zynq_slcr_lock
                0x1fc35f78        0x8 arch/arm/cpu/armv7/start.o
 .rel.text.zynq_slcr_unlock
                0x1fc35f80        0x8 arch/arm/cpu/armv7/start.o
 .rel.text.zynq_slcr_gem_clk_setup
                0x1fc35f88        0x8 arch/arm/cpu/armv7/start.o
 .rel.text.zynq_slcr_get_mio_pin_status
                0x1fc35f90        0x8 arch/arm/cpu/armv7/start.o
 .rel.rodata.mio_periphs
                0x1fc35f98       0x50 arch/arm/cpu/armv7/start.o
 .rel.text.display_banner
                0x1fc35fe8       0x10 arch/arm/cpu/armv7/start.o
 .rel.text.init_baudrate
                0x1fc35ff8        0x8 arch/arm/cpu/armv7/start.o
 .rel.text.board_init_f
                0x1fc36000       0x30 arch/arm/cpu/armv7/start.o
 .rel.text.board_init_r
                0x1fc36030       0x30 arch/arm/cpu/armv7/start.o
 .rel.text.boot_jump_linux
                0x1fc36060       0x28 arch/arm/cpu/armv7/start.o
 .rel.text.boot_prep_linux
                0x1fc36088       0x10 arch/arm/cpu/armv7/start.o
 .rel.text.interrupt_init
                0x1fc36098        0x8 arch/arm/cpu/armv7/start.o
 .rel.text.bad_mode
                0x1fc360a0        0x8 arch/arm/cpu/armv7/start.o
 .rel.text.show_regs
                0x1fc360a8       0x50 arch/arm/cpu/armv7/start.o
 .rel.text.do_undefined_instruction
                0x1fc360f8        0x8 arch/arm/cpu/armv7/start.o
 .rel.text.do_software_interrupt
                0x1fc36100        0x8 arch/arm/cpu/armv7/start.o
 .rel.text.do_prefetch_abort
                0x1fc36108        0x8 arch/arm/cpu/armv7/start.o
 .rel.text.do_data_abort
                0x1fc36110        0x8 arch/arm/cpu/armv7/start.o
 .rel.text.do_not_used
                0x1fc36118        0x8 arch/arm/cpu/armv7/start.o
 .rel.text.do_fiq
                0x1fc36120        0x8 arch/arm/cpu/armv7/start.o
 .rel.text.do_irq
                0x1fc36128        0x8 arch/arm/cpu/armv7/start.o
 .rel.text.do_reset
                0x1fc36130        0x8 arch/arm/cpu/armv7/start.o
 .rel.text.__enable_caches
                0x00000000        0x0 arch/arm/cpu/armv7/start.o
 .rel.rodata    0x1fc36138      0x100 arch/arm/cpu/armv7/start.o
 .rel.data.init_sequence
                0x1fc36238       0x48 arch/arm/cpu/armv7/start.o
 .rel.text.print_num
                0x1fc36280        0x8 arch/arm/cpu/armv7/start.o
 .rel.text.do_bdinfo
                0x1fc36288       0x98 arch/arm/cpu/armv7/start.o
 .rel.text.do_go
                0x1fc36320       0x10 arch/arm/cpu/armv7/start.o
 .rel.text.image_info
                0x1fc36330       0x58 arch/arm/cpu/armv7/start.o
 .rel.text.do_bootd
                0x1fc36388        0x8 arch/arm/cpu/armv7/start.o
 .rel.text.do_bootm_rtems
                0x1fc36390        0x8 arch/arm/cpu/armv7/start.o
 .rel.text.do_iminfo
                0x1fc36398        0x8 arch/arm/cpu/armv7/start.o
 .rel.text.do_bootm_plan9
                0x1fc363a0       0x18 arch/arm/cpu/armv7/start.o
 .rel.text.do_bootm_netbsd
                0x1fc363b8       0x18 arch/arm/cpu/armv7/start.o
 .rel.text.do_bootm_states.isra.15.constprop.16
                0x1fc363d0      0x138 arch/arm/cpu/armv7/start.o
 .rel.text.do_bootm
                0x1fc36508       0x18 arch/arm/cpu/armv7/start.o
 .rel.text.bootm_maybe_autostart
                0x1fc36520       0x20 arch/arm/cpu/armv7/start.o
 .rel.text.parse_argv
                0x1fc36540       0x18 arch/arm/cpu/armv7/start.o
 .rel.text.invalidate_icache_all
                0x00000000        0x0 arch/arm/cpu/armv7/start.o
 .rel.text.do_icache
                0x1fc36558       0x18 arch/arm/cpu/armv7/start.o
 .rel.text.flush_dcache_all
                0x00000000        0x0 arch/arm/cpu/armv7/start.o
 .rel.text.do_dcache
                0x1fc36570       0x18 arch/arm/cpu/armv7/start.o
 .rel.text.do_coninfo
                0x1fc36588       0x28 arch/arm/cpu/armv7/start.o
 .rel.text.do_echo
                0x1fc365b0        0x8 arch/arm/cpu/armv7/start.o
 .rel.text.do_fat_fsinfo
                0x1fc365b8       0x10 arch/arm/cpu/armv7/start.o
 .rel.text.fdt_valid
                0x1fc365c8       0x28 arch/arm/cpu/armv7/start.o
 .rel.text.is_printable_string
                0x1fc365f0        0x8 arch/arm/cpu/armv7/start.o
 .rel.text.print_data
                0x1fc365f8       0x58 arch/arm/cpu/armv7/start.o
 .rel.text.set_working_fdt_addr
                0x1fc36650       0x10 arch/arm/cpu/armv7/start.o
 .rel.text.do_fdt
                0x1fc36660      0x240 arch/arm/cpu/armv7/start.o
 .rel.text.do_fpga
                0x1fc368a0       0xd8 arch/arm/cpu/armv7/start.o
 .rel.text.do_help
                0x1fc36978       0x10 arch/arm/cpu/armv7/start.o
 .rel.text.binary_test
                0x1fc36988       0x78 arch/arm/cpu/armv7/start.o
 .rel.text.do_itest
                0x1fc36a00       0x40 arch/arm/cpu/armv7/start.o
 .rel.text.bin_data_init
                0x1fc36a40       0x18 arch/arm/cpu/armv7/start.o
 .rel.text.k_data_restore
                0x1fc36a58       0x30 arch/arm/cpu/armv7/start.o
 .rel.text.load_serial_ymodem
                0x1fc36a88       0x20 arch/arm/cpu/armv7/start.o
 .rel.text.do_save_serial
                0x1fc36aa8       0x38 arch/arm/cpu/armv7/start.o
 .rel.text.bin_data_char
                0x1fc36ae0       0x10 arch/arm/cpu/armv7/start.o
 .rel.text.chk1.constprop.1
                0x1fc36af0        0x8 arch/arm/cpu/armv7/start.o
 .rel.text.s1_sendpacket.constprop.2
                0x1fc36af8       0x18 arch/arm/cpu/armv7/start.o
 .rel.text.load_serial
                0x1fc36b10       0x68 arch/arm/cpu/armv7/start.o
 .rel.text.do_load_serial
                0x1fc36b78       0x30 arch/arm/cpu/armv7/start.o
 .rel.text.do_load_serial_bin
                0x1fc36ba8       0xf8 arch/arm/cpu/armv7/start.o
 .rel.text.do_mem_mw
                0x1fc36ca0        0x8 arch/arm/cpu/armv7/start.o
 .rel.text.do_mem_base
                0x1fc36ca8       0x10 arch/arm/cpu/armv7/start.o
 .rel.text.do_mem_cmp
                0x1fc36cb8       0x30 arch/arm/cpu/armv7/start.o
 .rel.text.do_mem_crc
                0x1fc36ce8        0x8 arch/arm/cpu/armv7/start.o
 .rel.text.do_mem_cp
                0x1fc36cf0       0x10 arch/arm/cpu/armv7/start.o
 .rel.text.do_mem_md
                0x1fc36d00       0x20 arch/arm/cpu/armv7/start.o
 .rel.text.mod_mem.isra.2
                0x1fc36d20       0x48 arch/arm/cpu/armv7/start.o
 .rel.text.do_mmcops
                0x1fc36d68       0xa8 arch/arm/cpu/armv7/start.o
 .rel.text.do_mmcinfo
                0x1fc36e10       0x90 arch/arm/cpu/armv7/start.o
 .rel.text.netboot_common
                0x1fc36ea0       0x88 arch/arm/cpu/armv7/start.o
 .rel.text.do_ping
                0x1fc36f28       0x18 arch/arm/cpu/armv7/start.o
 .rel.text.do_env_delete
                0x1fc36f40       0x10 arch/arm/cpu/armv7/start.o
 .rel.text.env_print
                0x1fc36f50       0x18 arch/arm/cpu/armv7/start.o
 .rel.text.do_env_print
                0x1fc36f68       0x10 arch/arm/cpu/armv7/start.o
 .rel.text.do_env
                0x1fc36f78        0x8 arch/arm/cpu/armv7/start.o
 .rel.text.do_env_import
                0x1fc36f80       0x50 arch/arm/cpu/armv7/start.o
 .rel.text.do_env_default
                0x1fc36fd0        0x8 arch/arm/cpu/armv7/start.o
 .rel.text.do_env_save
                0x1fc36fd8       0x10 arch/arm/cpu/armv7/start.o
 .rel.text._do_env_set.isra.0
                0x1fc36fe8       0x30 arch/arm/cpu/armv7/start.o
 .rel.text.do_env_ask
                0x1fc37018       0x10 arch/arm/cpu/armv7/start.o
 .rel.text.get_env_id
                0x1fc37028        0x8 arch/arm/cpu/armv7/start.o
 .rel.text.setenv
                0x1fc37030        0x8 arch/arm/cpu/armv7/start.o
 .rel.text.setenv_hex
                0x1fc37038        0x8 arch/arm/cpu/armv7/start.o
 .rel.text.do_env_export
                0x1fc37040       0x40 arch/arm/cpu/armv7/start.o
 .rel.text.getenv_f
                0x1fc37080        0x8 arch/arm/cpu/armv7/start.o
 .rel.text.getenv
                0x1fc37088        0x8 arch/arm/cpu/armv7/start.o
 .rel.text.do_env_edit
                0x1fc37090       0x10 arch/arm/cpu/armv7/start.o
 .rel.text.do_spi_flash
                0x1fc370a0       0xa8 arch/arm/cpu/armv7/start.o
 .rel.text.source
                0x1fc37148       0x68 arch/arm/cpu/armv7/start.o
 .rel.text.do_source
                0x1fc371b0       0x10 arch/arm/cpu/armv7/start.o
 .rel.text.do_spi
                0x1fc371c0       0x60 arch/arm/cpu/armv7/start.o
 .rel.text.do_test
                0x1fc37220       0x78 arch/arm/cpu/armv7/start.o
 .rel.text.do_version
                0x1fc37298       0x20 arch/arm/cpu/armv7/start.o
 .rel.text.do_imgextract
                0x1fc372b8       0xc8 arch/arm/cpu/armv7/start.o
 .rel.text.find_cmd
                0x1fc37380       0x10 arch/arm/cpu/armv7/start.o
 .rel.text.cmd_usage
                0x1fc37390       0x18 arch/arm/cpu/armv7/start.o
 .rel.text._do_help
                0x1fc373a8       0x10 arch/arm/cpu/armv7/start.o
 .rel.text.cmd_get_data_size
                0x1fc373b8        0x8 arch/arm/cpu/armv7/start.o
 .rel.text.cmd_process
                0x1fc373c0       0x18 arch/arm/cpu/armv7/start.o
 .rel.text.console_setfile
                0x1fc373d8       0x10 arch/arm/cpu/armv7/start.o
 .rel.text.fgetc
                0x1fc373e8        0x8 arch/arm/cpu/armv7/start.o
 .rel.text.ftstc
                0x1fc373f0        0x8 arch/arm/cpu/armv7/start.o
 .rel.text.fputc
                0x1fc373f8        0x8 arch/arm/cpu/armv7/start.o
 .rel.text.fputs
                0x00000000        0x0 arch/arm/cpu/armv7/start.o
 .rel.text.puts
                0x1fc37400        0x8 arch/arm/cpu/armv7/start.o
 .rel.text.ctrlc
                0x1fc37408       0x10 arch/arm/cpu/armv7/start.o
 .rel.text.disable_ctrlc
                0x00000000        0x0 arch/arm/cpu/armv7/start.o
 .rel.text.had_ctrlc
                0x1fc37418        0x8 arch/arm/cpu/armv7/start.o
 .rel.text.clear_ctrlc
                0x1fc37420        0x8 arch/arm/cpu/armv7/start.o
 .rel.text.on_console
                0x1fc37428       0x20 arch/arm/cpu/armv7/start.o
 .rel.text.stdio_print_current_devices
                0x1fc37448       0x40 arch/arm/cpu/armv7/start.o
 .rel.text.console_init_r
                0x1fc37488       0x48 arch/arm/cpu/armv7/start.o
 .rel.text.sbrk
                0x1fc374d0       0x18 arch/arm/cpu/armv7/start.o
 .rel.text.mem_malloc_init
                0x1fc374e8       0x18 arch/arm/cpu/armv7/start.o
 .rel.text.malloc_trim
                0x1fc37500       0x18 arch/arm/cpu/armv7/start.o
 .rel.text.free
                0x1fc37518       0x18 arch/arm/cpu/armv7/start.o
 .rel.text.malloc
                0x1fc37530       0x40 arch/arm/cpu/armv7/start.o
 .rel.text.calloc
                0x1fc37570        0x8 arch/arm/cpu/armv7/start.o
 .rel.text.realloc
                0x1fc37578        0x8 arch/arm/cpu/armv7/start.o
 .rel.text.mallopt
                0x00000000        0x0 arch/arm/cpu/armv7/start.o
 .rel.text.env_attr_lookup
                0x1fc37580        0x8 arch/arm/cpu/armv7/start.o
 .rel.text.on_callbacks
                0x1fc37588       0x20 arch/arm/cpu/armv7/start.o
 .rel.text.set_callback
                0x1fc375a8       0x18 arch/arm/cpu/armv7/start.o
 .rel.text.env_callback_init
                0x1fc375c0       0x20 arch/arm/cpu/armv7/start.o
 .rel.text.env_get_addr
                0x1fc375e0        0x8 arch/arm/cpu/armv7/start.o
 .rel.text.env_get_char
                0x1fc375e8        0x8 arch/arm/cpu/armv7/start.o
 .rel.text.set_default_env
                0x1fc375f0       0x40 arch/arm/cpu/armv7/start.o
 .rel.text.set_default_vars
                0x1fc37630       0x10 arch/arm/cpu/armv7/start.o
 .rel.text.env_import
                0x1fc37640       0x38 arch/arm/cpu/armv7/start.o
 .rel.text.env_relocate
                0x1fc37678        0x8 arch/arm/cpu/armv7/start.o
 .rel.text.skip_num
                0x1fc37680        0x8 arch/arm/cpu/armv7/start.o
 .rel.text.on_flags
                0x1fc37688       0x20 arch/arm/cpu/armv7/start.o
 .rel.text.env_flags_parse_vartype
                0x1fc376a8       0x10 arch/arm/cpu/armv7/start.o
 .rel.text.env_flags_parse_varaccess
                0x1fc376b8       0x10 arch/arm/cpu/armv7/start.o
 .rel.text.set_flags
                0x1fc376c8       0x10 arch/arm/cpu/armv7/start.o
 .rel.text.env_flags_parse_varaccess_from_binflags
                0x00000000        0x0 arch/arm/cpu/armv7/start.o
 .rel.text.env_flags_init
                0x1fc376d8       0x20 arch/arm/cpu/armv7/start.o
 .rel.text.env_flags_validate
                0x1fc376f8       0x68 arch/arm/cpu/armv7/start.o
 .rel.text.saveenv
                0x1fc37760       0x50 arch/arm/cpu/armv7/start.o
 .rel.text.env_relocate_spec
                0x1fc377b0       0x18 arch/arm/cpu/armv7/start.o
 .rel.text.env_init
                0x1fc377c8        0x8 arch/arm/cpu/armv7/start.o
 .rel.text.jumptable_init
                0x1fc377d0       0xc8 arch/arm/cpu/armv7/start.o
 .rel.text.of_bus_default_count_cells
                0x00000000        0x0 arch/arm/cpu/armv7/start.o
 .rel.text.fdt_initrd
                0x1fc37898       0x30 arch/arm/cpu/armv7/start.o
 .rel.text.fdt_chosen
                0x1fc378c8       0x30 arch/arm/cpu/armv7/start.o
 .rel.text.do_fixup_by_path
                0x1fc378f8        0x8 arch/arm/cpu/armv7/start.o
 .rel.text.fdt_fixup_memory_banks
                0x1fc37900       0x58 arch/arm/cpu/armv7/start.o
 .rel.text.fdt_fixup_ethernet
                0x1fc37958       0x30 arch/arm/cpu/armv7/start.o
 .rel.text.fdt_del_node_and_alias
                0x00000000        0x0 arch/arm/cpu/armv7/start.o
 .rel.text.fdt_translate_address
                0x00000000        0x0 arch/arm/cpu/armv7/start.o
 .rel.text.fdt_node_offset_by_compat_reg
                0x00000000        0x0 arch/arm/cpu/armv7/start.o
 .rel.text.fdt_set_phandle
                0x00000000        0x0 arch/arm/cpu/armv7/start.o
 .rel.text.fdt_create_phandle
                0x00000000        0x0 arch/arm/cpu/armv7/start.o
 .rel.text.fdt_set_node_status
                0x00000000        0x0 arch/arm/cpu/armv7/start.o
 .rel.text.fdt_verify_alias_address
                0x00000000        0x0 arch/arm/cpu/armv7/start.o
 .rel.text.fdt_get_base_address
                0x00000000        0x0 arch/arm/cpu/armv7/start.o
 .rel.text.hash_block
                0x00000000        0x0 arch/arm/cpu/armv7/start.o
 .rel.text.hash_command
                0x1fc37988        0x8 arch/arm/cpu/armv7/start.o
 .rel.text.mapset
                0x1fc37990        0x8 arch/arm/cpu/armv7/start.o
 .rel.text.syntax_err
                0x1fc37998        0x8 arch/arm/cpu/armv7/start.o
 .rel.text.do_showvar
                0x1fc379a0       0x20 arch/arm/cpu/armv7/start.o
 .rel.text.xmalloc
                0x1fc379c0        0x8 arch/arm/cpu/armv7/start.o
 .rel.text.xrealloc
                0x1fc379c8        0x8 arch/arm/cpu/armv7/start.o
 .rel.text.done_word
                0x1fc379d0        0x8 arch/arm/cpu/armv7/start.o
 .rel.text.is_assignment
                0x1fc379d8        0x8 arch/arm/cpu/armv7/start.o
 .rel.text.file_get
                0x1fc379e0       0x30 arch/arm/cpu/armv7/start.o
 .rel.text.b_addqchr
                0x1fc37a10        0x8 arch/arm/cpu/armv7/start.o
 .rel.text.get_local_var
                0x1fc37a18       0x20 arch/arm/cpu/armv7/start.o
 .rel.text.set_local_var
                0x1fc37a38       0x20 arch/arm/cpu/armv7/start.o
 .rel.text.insert_var_value_sub
                0x1fc37a58        0x8 arch/arm/cpu/armv7/start.o
 .rel.text.unset_local_var
                0x00000000        0x0 arch/arm/cpu/armv7/start.o
 .rel.text.parse_string_outer
                0x1fc37a60       0x18 arch/arm/cpu/armv7/start.o
 .rel.text.run_list_real
                0x1fc37a78       0x38 arch/arm/cpu/armv7/start.o
 .rel.text.parse_stream_outer
                0x1fc37ab0       0x60 arch/arm/cpu/armv7/start.o
 .rel.text.parse_file_outer
                0x1fc37b10       0x10 arch/arm/cpu/armv7/start.o
 .rel.text.u_boot_hush_start
                0x1fc37b20       0x18 arch/arm/cpu/armv7/start.o
 .rel.text.fdt_error
                0x1fc37b38       0x10 arch/arm/cpu/armv7/start.o
 .rel.text.boot_fdt_add_mem_rsv_regions
                0x1fc37b48        0x8 arch/arm/cpu/armv7/start.o
 .rel.text.boot_relocate_fdt
                0x1fc37b50       0x40 arch/arm/cpu/armv7/start.o
 .rel.text.boot_get_fdt
                0x1fc37b90       0x90 arch/arm/cpu/armv7/start.o
 .rel.text.image_setup_libfdt
                0x1fc37c20       0x10 arch/arm/cpu/armv7/start.o
 .rel.text.fit_get_desc
                0x1fc37c30        0x8 arch/arm/cpu/armv7/start.o
 .rel.text.fit_get_timestamp
                0x00000000        0x0 arch/arm/cpu/armv7/start.o
 .rel.text.fit_image_get_node
                0x1fc37c38        0x8 arch/arm/cpu/armv7/start.o
 .rel.text.fit_image_get_os
                0x1fc37c40        0x8 arch/arm/cpu/armv7/start.o
 .rel.text.fit_image_get_arch
                0x1fc37c48        0x8 arch/arm/cpu/armv7/start.o
 .rel.text.fit_image_get_type
                0x1fc37c50        0x8 arch/arm/cpu/armv7/start.o
 .rel.text.fit_image_get_comp
                0x1fc37c58        0x8 arch/arm/cpu/armv7/start.o
 .rel.text.fit_image_get_load
                0x1fc37c60        0x8 arch/arm/cpu/armv7/start.o
 .rel.text.fit_image_get_entry
                0x1fc37c68        0x8 arch/arm/cpu/armv7/start.o
 .rel.text.fit_image_get_data
                0x1fc37c70        0x8 arch/arm/cpu/armv7/start.o
 .rel.text.fit_image_hash_get_algo
                0x1fc37c78        0x8 arch/arm/cpu/armv7/start.o
 .rel.text.fit_image_hash_get_value
                0x1fc37c80        0x8 arch/arm/cpu/armv7/start.o
 .rel.text.fit_image_print_data
                0x1fc37c88       0x58 arch/arm/cpu/armv7/start.o
 .rel.text.fit_image_print
                0x1fc37ce0       0x80 arch/arm/cpu/armv7/start.o
 .rel.text.fit_set_timestamp
                0x00000000        0x0 arch/arm/cpu/armv7/start.o
 .rel.text.calculate_hash
                0x1fc37d60       0x18 arch/arm/cpu/armv7/start.o
 .rel.text.fit_image_verify
                0x1fc37d78       0x68 arch/arm/cpu/armv7/start.o
 .rel.text.fit_all_image_verify
                0x1fc37de0       0x28 arch/arm/cpu/armv7/start.o
 .rel.text.fit_check_format
                0x1fc37e08       0x10 arch/arm/cpu/armv7/start.o
 .rel.text.fit_conf_find_compat
                0x00000000        0x0 arch/arm/cpu/armv7/start.o
 .rel.text.fit_conf_get_node
                0x1fc37e18       0x10 arch/arm/cpu/armv7/start.o
 .rel.text.fit_conf_print
                0x1fc37e28       0x48 arch/arm/cpu/armv7/start.o
 .rel.text.fit_print_contents
                0x1fc37e70       0x58 arch/arm/cpu/armv7/start.o
 .rel.text.fit_image_select
                0x1fc37ec8       0x20 arch/arm/cpu/armv7/start.o
 .rel.text.fit_image_load
                0x1fc37ee8       0x70 arch/arm/cpu/armv7/start.o
 .rel.text.on_loadaddr
                0x1fc37f58        0x8 arch/arm/cpu/armv7/start.o
 .rel.text.getenv_bootm_low
                0x1fc37f60        0x8 arch/arm/cpu/armv7/start.o
 .rel.text.getenv_bootm_size
                0x1fc37f68       0x10 arch/arm/cpu/armv7/start.o
 .rel.text.getenv_bootm_mapsize
                0x1fc37f78        0x8 arch/arm/cpu/armv7/start.o
 .rel.text.genimg_print_size
                0x1fc37f80       0x10 arch/arm/cpu/armv7/start.o
 .rel.text.genimg_get_os_name
                0x1fc37f90       0x10 arch/arm/cpu/armv7/start.o
 .rel.text.genimg_get_arch_name
                0x1fc37fa0       0x10 arch/arm/cpu/armv7/start.o
 .rel.text.genimg_get_type_name
                0x1fc37fb0       0x10 arch/arm/cpu/armv7/start.o
 .rel.text.genimg_get_comp_name
                0x1fc37fc0       0x10 arch/arm/cpu/armv7/start.o
 .rel.text.image_print_contents
                0x1fc37fd0       0x50 arch/arm/cpu/armv7/start.o
 .rel.text.genimg_get_os_id
                0x1fc38020       0x10 arch/arm/cpu/armv7/start.o
 .rel.text.genimg_get_arch_id
                0x1fc38030       0x10 arch/arm/cpu/armv7/start.o
 .rel.text.genimg_get_type_id
                0x1fc38040       0x10 arch/arm/cpu/armv7/start.o
 .rel.text.genimg_get_comp_id
                0x1fc38050       0x10 arch/arm/cpu/armv7/start.o
 .rel.text.boot_get_ramdisk
                0x1fc38060       0x60 arch/arm/cpu/armv7/start.o
 .rel.text.boot_ramdisk_high
                0x1fc380c0       0x20 arch/arm/cpu/armv7/start.o
 .rel.text.delete_char.part.1
                0x1fc380e0       0x10 arch/arm/cpu/armv7/start.o
 .rel.text.cread_add_char
                0x1fc380f0        0x8 arch/arm/cpu/armv7/start.o
 .rel.text.readline_into_buffer
                0x1fc380f8       0xa8 arch/arm/cpu/armv7/start.o
 .rel.text.readline
                0x1fc381a0        0x8 arch/arm/cpu/armv7/start.o
 .rel.text.parse_line
                0x00000000        0x0 arch/arm/cpu/armv7/start.o
 .rel.text.main_loop
                0x1fc381a8       0x28 arch/arm/cpu/armv7/start.o
 .rel.text.do_run
                0x1fc381d0        0x8 arch/arm/cpu/armv7/start.o
 .rel.text.miiphy_get_dev_by_name
                0x1fc381d8       0x10 arch/arm/cpu/armv7/start.o
 .rel.text.miiphy_init
                0x1fc381e8       0x10 arch/arm/cpu/armv7/start.o
 .rel.text.miiphy_register
                0x1fc381f8       0x50 arch/arm/cpu/armv7/start.o
 .rel.text.mdio_register
                0x00000000        0x0 arch/arm/cpu/armv7/start.o
 .rel.text.mdio_list_devices
                0x00000000        0x0 arch/arm/cpu/armv7/start.o
 .rel.text.miiphy_set_current_dev
                0x00000000        0x0 arch/arm/cpu/armv7/start.o
 .rel.text.miiphy_get_active_dev
                0x00000000        0x0 arch/arm/cpu/armv7/start.o
 .rel.text.mdio_get_current_dev
                0x00000000        0x0 arch/arm/cpu/armv7/start.o
 .rel.text.mdio_phydev_for_ethname
                0x00000000        0x0 arch/arm/cpu/armv7/start.o
 .rel.text.miiphy_get_current_dev
                0x00000000        0x0 arch/arm/cpu/armv7/start.o
 .rel.text.miiphy_listdev
                0x00000000        0x0 arch/arm/cpu/armv7/start.o
 .rel.text.miiphy_speed
                0x00000000        0x0 arch/arm/cpu/armv7/start.o
 .rel.text.miiphy_duplex
                0x00000000        0x0 arch/arm/cpu/armv7/start.o
 .rel.text.miiphy_link
                0x00000000        0x0 arch/arm/cpu/armv7/start.o
 .rel.text.srec_decode
                0x1fc38248       0x50 arch/arm/cpu/armv7/start.o
 .rel.text.stdio_get_list
                0x1fc38298        0x8 arch/arm/cpu/armv7/start.o
 .rel.text.stdio_get_by_name
                0x1fc382a0        0x8 arch/arm/cpu/armv7/start.o
 .rel.text.stdio_register
                0x1fc382a8        0x8 arch/arm/cpu/armv7/start.o
 .rel.text.stdio_init
                0x1fc382b0       0x30 arch/arm/cpu/armv7/start.o
 .rel.text.xyzModem_get_hdr
                0x1fc382e0       0x28 arch/arm/cpu/armv7/start.o
 .rel.text.xyzModem_stream_open
                0x1fc38308       0x10 arch/arm/cpu/armv7/start.o
 .rel.text.xyzModem_stream_read
                0x1fc38318        0x8 arch/arm/cpu/armv7/start.o
 .rel.text.xyzModem_stream_close
                0x1fc38320       0x20 arch/arm/cpu/armv7/start.o
 .rel.text.xyzModem_stream_terminate
                0x1fc38340        0x8 arch/arm/cpu/armv7/start.o
 .rel.text.xyzModem_error
                0x1fc38348       0x10 arch/arm/cpu/armv7/start.o
 .rel.rodata.boot_os
                0x1fc38358       0x20 arch/arm/cpu/armv7/start.o
 .rel.rodata.op_table
                0x1fc38378       0x68 arch/arm/cpu/armv7/start.o
 .rel.rodata.uimage_comp
                0x1fc383e0       0x60 arch/arm/cpu/armv7/start.o
 .rel.rodata.uimage_os
                0x1fc38440       0x78 arch/arm/cpu/armv7/start.o
 .rel.rodata.uimage_arch
                0x1fc384b8      0x158 arch/arm/cpu/armv7/start.o
 .rel.rodata.uimage_type
                0x1fc38610      0x108 arch/arm/cpu/armv7/start.o
 .rel.rodata.CSWTCH.26
                0x1fc38718       0x40 arch/arm/cpu/armv7/start.o
 .rel.u_boot_list_2_cmd_2_bdinfo
                0x1fc38758       0x20 arch/arm/cpu/armv7/start.o
 .rel.u_boot_list_2_cmd_2_go
                0x1fc38778       0x20 arch/arm/cpu/armv7/start.o
 .rel.u_boot_list_2_cmd_2_reset
                0x1fc38798       0x20 arch/arm/cpu/armv7/start.o
 .rel.u_boot_list_2_cmd_2_iminfo
                0x1fc387b8       0x20 arch/arm/cpu/armv7/start.o
 .rel.u_boot_list_2_cmd_2_boot
                0x1fc387d8       0x20 arch/arm/cpu/armv7/start.o
 .rel.u_boot_list_2_cmd_2_bootd
                0x1fc387f8       0x20 arch/arm/cpu/armv7/start.o
 .rel.u_boot_list_2_cmd_2_bootm
                0x1fc38818       0x20 arch/arm/cpu/armv7/start.o
 .rel.data.cmd_bootm_sub
                0x1fc38838       0xd8 arch/arm/cpu/armv7/start.o
 .rel.u_boot_list_2_cmd_2_icache
                0x1fc38910       0x20 arch/arm/cpu/armv7/start.o
 .rel.u_boot_list_2_cmd_2_dcache
                0x1fc38930       0x20 arch/arm/cpu/armv7/start.o
 .rel.u_boot_list_2_cmd_2_coninfo
                0x1fc38950       0x20 arch/arm/cpu/armv7/start.o
 .rel.u_boot_list_2_cmd_2_echo
                0x1fc38970       0x20 arch/arm/cpu/armv7/start.o
 .rel.u_boot_list_2_cmd_2_exit
                0x1fc38990       0x20 arch/arm/cpu/armv7/start.o
 .rel.u_boot_list_2_cmd_2_ext2ls
                0x1fc389b0       0x20 arch/arm/cpu/armv7/start.o
 .rel.u_boot_list_2_cmd_2_ext2load
                0x1fc389d0       0x20 arch/arm/cpu/armv7/start.o
 .rel.u_boot_list_2_cmd_2_fatinfo
                0x1fc389f0       0x20 arch/arm/cpu/armv7/start.o
 .rel.u_boot_list_2_cmd_2_fatload
                0x1fc38a10       0x20 arch/arm/cpu/armv7/start.o
 .rel.u_boot_list_2_cmd_2_fatls
                0x1fc38a30       0x20 arch/arm/cpu/armv7/start.o
 .rel.u_boot_list_2_cmd_2_fdt
                0x1fc38a50       0x20 arch/arm/cpu/armv7/start.o
 .rel.u_boot_list_2_cmd_2_fpga
                0x1fc38a70       0x20 arch/arm/cpu/armv7/start.o
 .rel.u_boot_list_2_cmd_2_question_mark
                0x1fc38a90       0x20 arch/arm/cpu/armv7/start.o
 .rel.u_boot_list_2_cmd_2_help
                0x1fc38ab0       0x20 arch/arm/cpu/armv7/start.o
 .rel.u_boot_list_2_cmd_2_itest
                0x1fc38ad0       0x20 arch/arm/cpu/armv7/start.o
 .rel.u_boot_list_2_cmd_2_loadb
                0x1fc38af0       0x20 arch/arm/cpu/armv7/start.o
 .rel.u_boot_list_2_cmd_2_saves
                0x1fc38b10       0x20 arch/arm/cpu/armv7/start.o
 .rel.u_boot_list_2_cmd_2_loads
                0x1fc38b30       0x20 arch/arm/cpu/armv7/start.o
 .rel.u_boot_list_2_cmd_2_loady
                0x1fc38b50       0x20 arch/arm/cpu/armv7/start.o
 .rel.u_boot_list_2_cmd_2_base
                0x1fc38b70       0x20 arch/arm/cpu/armv7/start.o
 .rel.u_boot_list_2_cmd_2_cmp
                0x1fc38b90       0x20 arch/arm/cpu/armv7/start.o
 .rel.u_boot_list_2_cmd_2_nm
                0x1fc38bb0       0x20 arch/arm/cpu/armv7/start.o
 .rel.u_boot_list_2_cmd_2_loop
                0x1fc38bd0       0x20 arch/arm/cpu/armv7/start.o
 .rel.u_boot_list_2_cmd_2_cp
                0x1fc38bf0       0x20 arch/arm/cpu/armv7/start.o
 .rel.u_boot_list_2_cmd_2_mm
                0x1fc38c10       0x20 arch/arm/cpu/armv7/start.o
 .rel.u_boot_list_2_cmd_2_crc32
                0x1fc38c30       0x20 arch/arm/cpu/armv7/start.o
 .rel.u_boot_list_2_cmd_2_md
                0x1fc38c50       0x20 arch/arm/cpu/armv7/start.o
 .rel.u_boot_list_2_cmd_2_mw
                0x1fc38c70       0x20 arch/arm/cpu/armv7/start.o
 .rel.u_boot_list_2_cmd_2_sleep
                0x1fc38c90       0x20 arch/arm/cpu/armv7/start.o
 .rel.u_boot_list_2_cmd_2_mmcinfo
                0x1fc38cb0       0x20 arch/arm/cpu/armv7/start.o
 .rel.u_boot_list_2_cmd_2_mmc
                0x1fc38cd0       0x20 arch/arm/cpu/armv7/start.o
 .rel.u_boot_list_2_cmd_2_ping
                0x1fc38cf0       0x20 arch/arm/cpu/armv7/start.o
 .rel.u_boot_list_2_cmd_2_dhcp
                0x1fc38d10       0x20 arch/arm/cpu/armv7/start.o
 .rel.u_boot_list_2_cmd_2_bootp
                0x1fc38d30       0x20 arch/arm/cpu/armv7/start.o
 .rel.u_boot_list_2_cmd_2_tftpboot
                0x1fc38d50       0x20 arch/arm/cpu/armv7/start.o
 .rel.u_boot_list_2_cmd_2_setenv
                0x1fc38d70       0x20 arch/arm/cpu/armv7/start.o
 .rel.u_boot_list_2_cmd_2_askenv
                0x1fc38d90       0x20 arch/arm/cpu/armv7/start.o
 .rel.u_boot_list_2_cmd_2_env
                0x1fc38db0       0x20 arch/arm/cpu/armv7/start.o
 .rel.u_boot_list_2_cmd_2_saveenv
                0x1fc38dd0       0x20 arch/arm/cpu/armv7/start.o
 .rel.data.cmd_env_sub
                0x1fc38df0      0x140 arch/arm/cpu/armv7/start.o
 .rel.u_boot_list_2_cmd_2_printenv
                0x1fc38f30       0x20 arch/arm/cpu/armv7/start.o
 .rel.u_boot_list_2_cmd_2_editenv
                0x1fc38f50       0x20 arch/arm/cpu/armv7/start.o
 .rel.u_boot_list_2_cmd_2_run
                0x1fc38f70       0x20 arch/arm/cpu/armv7/start.o
 .rel.u_boot_list_2_cmd_2_sf
                0x1fc38f90       0x20 arch/arm/cpu/armv7/start.o
 .rel.u_boot_list_2_cmd_2_source
                0x1fc38fb0       0x20 arch/arm/cpu/armv7/start.o
 .rel.u_boot_list_2_cmd_2_sspi
                0x1fc38fd0       0x20 arch/arm/cpu/armv7/start.o
 .rel.u_boot_list_2_cmd_2_test
                0x1fc38ff0       0x20 arch/arm/cpu/armv7/start.o
 .rel.u_boot_list_2_cmd_2_true
                0x1fc39010       0x18 arch/arm/cpu/armv7/start.o
 .rel.u_boot_list_2_cmd_2_false
                0x1fc39028       0x18 arch/arm/cpu/armv7/start.o
 .rel.u_boot_list_2_cmd_2_version
                0x1fc39040       0x20 arch/arm/cpu/armv7/start.o
 .rel.u_boot_list_2_cmd_2_imxtract
                0x1fc39060       0x20 arch/arm/cpu/armv7/start.o
 .rel.u_boot_list_2_env_clbk_2_console
                0x1fc39080       0x10 arch/arm/cpu/armv7/start.o
 .rel.data.av_  0x1fc39090      0x800 arch/arm/cpu/armv7/start.o
 .rel.u_boot_list_2_env_clbk_2_callbacks
                0x1fc39890       0x10 arch/arm/cpu/armv7/start.o
 .rel.data.env_htab
                0x1fc398a0        0x8 arch/arm/cpu/armv7/start.o
 .rel.u_boot_list_2_env_clbk_2_flags
                0x1fc398a8       0x10 arch/arm/cpu/armv7/start.o
 .rel.data.env_name_spec
                0x1fc398b8        0x8 arch/arm/cpu/armv7/start.o
 .rel.data.of_busses
                0x00000000        0x0 arch/arm/cpu/armv7/start.o
 .rel.data.hash_algo
                0x00000000        0x0 arch/arm/cpu/armv7/start.o
 .rel.data.reserved_list
                0x1fc398c0       0x58 arch/arm/cpu/armv7/start.o
 .rel.u_boot_list_2_cmd_2_showvar
                0x1fc39918       0x20 arch/arm/cpu/armv7/start.o
 .rel.u_boot_list_2_env_clbk_2_loadaddr
                0x1fc39938       0x10 arch/arm/cpu/armv7/start.o
 .rel.data.stdio_names
                0x1fc39948       0x18 arch/arm/cpu/armv7/start.o
 .rel.text.get_dev
                0x1fc39960        0x8 arch/arm/cpu/armv7/start.o
 .rel.text.dev_print
                0x1fc39968      0x110 arch/arm/cpu/armv7/start.o
 .rel.text.print_part
                0x1fc39a78       0xa0 arch/arm/cpu/armv7/start.o
 .rel.text.get_device
                0x1fc39b18       0x10 arch/arm/cpu/armv7/start.o
 .rel.text.get_device_and_partition
                0x1fc39b28       0x70 arch/arm/cpu/armv7/start.o
 .rel.text.test_block_type
                0x1fc39b98       0x10 arch/arm/cpu/armv7/start.o
 .rel.text.print_partition_extended
                0x1fc39ba8       0x30 arch/arm/cpu/armv7/start.o
 .rel.text.get_partition_info_extended.constprop.2
                0x1fc39bd8       0x80 arch/arm/cpu/armv7/start.o
 .rel.text.print_part_dos
                0x1fc39c58        0x8 arch/arm/cpu/armv7/start.o
 .rel.rodata.block_drvr
                0x1fc39c60       0x10 arch/arm/cpu/armv7/start.o
 .rel.text.fpga_no_sup
                0x1fc39c70       0x18 arch/arm/cpu/armv7/start.o
 .rel.text.fpga_dev_info
                0x1fc39c88       0x40 arch/arm/cpu/armv7/start.o
 .rel.text.fpga_validate
                0x1fc39cc8       0x20 arch/arm/cpu/armv7/start.o
 .rel.text.fpga_init
                0x1fc39ce8       0x10 arch/arm/cpu/armv7/start.o
 .rel.text.fpga_count
                0x1fc39cf8        0x8 arch/arm/cpu/armv7/start.o
 .rel.text.fpga_add
                0x1fc39d00       0x38 arch/arm/cpu/armv7/start.o
 .rel.text.fpga_loadbitstream
                0x1fc39d38       0x70 arch/arm/cpu/armv7/start.o
 .rel.text.fpga_load
                0x1fc39da8       0x20 arch/arm/cpu/armv7/start.o
 .rel.text.fpga_dump
                0x1fc39dc8       0x20 arch/arm/cpu/armv7/start.o
 .rel.text.fpga_info
                0x1fc39de8       0x18 arch/arm/cpu/armv7/start.o
 .rel.text.zynq_load
                0x1fc39e00       0x58 arch/arm/cpu/armv7/start.o
 .rel.text.xilinx_validate
                0x1fc39e58       0x20 arch/arm/cpu/armv7/start.o
 .rel.text.xilinx_load
                0x1fc39e78       0x58 arch/arm/cpu/armv7/start.o
 .rel.text.xilinx_dump
                0x1fc39ed0       0x58 arch/arm/cpu/armv7/start.o
 .rel.text.xilinx_info
                0x1fc39f28      0x148 arch/arm/cpu/armv7/start.o
 .rel.text.input_send_keycodes
                0x00000000        0x0 arch/arm/cpu/armv7/start.o
 .rel.text.input_init
                0x00000000        0x0 arch/arm/cpu/armv7/start.o
 .rel.text.input_stdio_register
                0x00000000        0x0 arch/arm/cpu/armv7/start.o
 .rel.rodata.kbd_to_ansi364
                0x00000000        0x0 arch/arm/cpu/armv7/start.o
 .rel.text.mmc_set_capacity
                0x1fc3a070       0x40 arch/arm/cpu/armv7/start.o
 .rel.text.mmc_send_status.constprop.6
                0x1fc3a0b0       0x10 arch/arm/cpu/armv7/start.o
 .rel.text.find_mmc_device
                0x1fc3a0c0       0x10 arch/arm/cpu/armv7/start.o
 .rel.text.mmc_berase
                0x1fc3a0d0       0x10 arch/arm/cpu/armv7/start.o
 .rel.text.mmc_bwrite
                0x1fc3a0e0       0x18 arch/arm/cpu/armv7/start.o
 .rel.text.mmc_bread
                0x1fc3a0f8       0x10 arch/arm/cpu/armv7/start.o
 .rel.text.mmc_startup
                0x1fc3a108       0x98 arch/arm/cpu/armv7/start.o
 .rel.text.mmc_register
                0x1fc3a1a0       0x28 arch/arm/cpu/armv7/start.o
 .rel.text.mmc_start_init
                0x1fc3a1c8       0x10 arch/arm/cpu/armv7/start.o
 .rel.text.print_mmc_devices
                0x1fc3a1d8       0x20 arch/arm/cpu/armv7/start.o
 .rel.text.get_mmc_num
                0x1fc3a1f8        0x8 arch/arm/cpu/armv7/start.o
 .rel.text.mmc_initialize
                0x1fc3a200       0x10 arch/arm/cpu/armv7/start.o
 .rel.text.sdhci_reset
                0x1fc3a210        0x8 arch/arm/cpu/armv7/start.o
 .rel.text.sdhci_set_ios
                0x1fc3a218        0x8 arch/arm/cpu/armv7/start.o
 .rel.text.sdhci_init
                0x1fc3a220       0x10 arch/arm/cpu/armv7/start.o
 .rel.text.sdhci_send_command
                0x1fc3a230       0x20 arch/arm/cpu/armv7/start.o
 .rel.text.add_sdhci
                0x1fc3a250       0x30 arch/arm/cpu/armv7/start.o
 .rel.text.zynq_sdhci_init
                0x1fc3a280       0x10 arch/arm/cpu/armv7/start.o
 .rel.text.spi_flash_bank_config
                0x1fc3a290        0x8 arch/arm/cpu/armv7/start.o
 .rel.text.spi_flash_probe
                0x1fc3a298       0x40 arch/arm/cpu/armv7/start.o
 .rel.text.spi_flash_do_alloc
                0x1fc3a2d8       0x18 arch/arm/cpu/armv7/start.o
 .rel.text.spi_flash_probe_spansion
                0x1fc3a2f0       0x18 arch/arm/cpu/armv7/start.o
 .rel.text.spi_flash_probe_stmicro
                0x1fc3a308       0x18 arch/arm/cpu/armv7/start.o
 .rel.text.spi_flash_probe_winbond
                0x1fc3a320       0x18 arch/arm/cpu/armv7/start.o
 .rel.rodata.flashes
                0x1fc3a338       0x20 arch/arm/cpu/armv7/start.o
 .rel.rodata.spansion_spi_flash_table
                0x1fc3a358       0x68 arch/arm/cpu/armv7/start.o
 .rel.rodata.stmicro_spi_flash_table
                0x1fc3a3c0       0xa0 arch/arm/cpu/armv7/start.o
 .rel.rodata.winbond_spi_flash_table
                0x1fc3a460       0x90 arch/arm/cpu/armv7/start.o
 .rel.text.nc_wait_arp_handler
                0x1fc3a4f0        0x8 arch/arm/cpu/armv7/start.o
 .rel.text.nc_handler
                0x1fc3a4f8       0x10 arch/arm/cpu/armv7/start.o
 .rel.text.nc_timeout
                0x1fc3a508        0x8 arch/arm/cpu/armv7/start.o
 .rel.text.nc_getc
                0x1fc3a510       0x28 arch/arm/cpu/armv7/start.o
 .rel.text.nc_send_packet
                0x1fc3a538       0x50 arch/arm/cpu/armv7/start.o
 .rel.text.nc_putc
                0x1fc3a588        0x8 arch/arm/cpu/armv7/start.o
 .rel.text.is_broadcast
                0x1fc3a590       0x28 arch/arm/cpu/armv7/start.o
 .rel.text.nc_tstc
                0x1fc3a5b8       0x20 arch/arm/cpu/armv7/start.o
 .rel.text.nc_puts
                0x1fc3a5d8        0x8 arch/arm/cpu/armv7/start.o
 .rel.text.refresh_settings_from_env
                0x1fc3a5e0       0x38 arch/arm/cpu/armv7/start.o
 .rel.text.nc_start
                0x1fc3a618       0x10 arch/arm/cpu/armv7/start.o
 .rel.text.NcStart
                0x1fc3a628       0x60 arch/arm/cpu/armv7/start.o
 .rel.text.nc_input_packet
                0x1fc3a688       0x28 arch/arm/cpu/armv7/start.o
 .rel.text.drv_nc_init
                0x1fc3a6b0       0x30 arch/arm/cpu/armv7/start.o
 .rel.text.phy_setup_op
                0x1fc3a6e0       0x10 arch/arm/cpu/armv7/start.o
 .rel.text.zynq_gem_miiphy_write
                0x1fc3a6f0        0x8 arch/arm/cpu/armv7/start.o
 .rel.text.zynq_gem_recv
                0x1fc3a6f8        0x8 arch/arm/cpu/armv7/start.o
 .rel.text.zynq_gem_send
                0x1fc3a700       0x10 arch/arm/cpu/armv7/start.o
 .rel.text.zynq_gem_init
                0x1fc3a710        0x8 arch/arm/cpu/armv7/start.o
 .rel.text.zynq_gem_miiphyread
                0x1fc3a718        0x8 arch/arm/cpu/armv7/start.o
 .rel.text.zynq_gem_initialize
                0x1fc3a720       0x40 arch/arm/cpu/armv7/start.o
 .rel.text.phy_device_create
                0x1fc3a760       0x18 arch/arm/cpu/armv7/start.o
 .rel.text.get_phy_device_by_mask
                0x1fc3a778        0x8 arch/arm/cpu/armv7/start.o
 .rel.text.genphy_update_link
                0x1fc3a780       0x28 arch/arm/cpu/armv7/start.o
 .rel.text.phy_register
                0x1fc3a7a8        0x8 arch/arm/cpu/armv7/start.o
 .rel.text.phy_reset
                0x1fc3a7b0        0x8 arch/arm/cpu/armv7/start.o
 .rel.text.phy_connect_dev
                0x1fc3a7b8        0x8 arch/arm/cpu/armv7/start.o
 .rel.text.phy_connect
                0x1fc3a7c0        0x8 arch/arm/cpu/armv7/start.o
 .rel.text.m88e1111s_config
                0x1fc3a7c8       0x10 arch/arm/cpu/armv7/start.o
 .rel.text.m88e1xxx_parse_status
                0x1fc3a7d8       0x18 arch/arm/cpu/armv7/start.o
 .rel.text.phy_marvell_init
                0x1fc3a7f0       0x48 arch/arm/cpu/armv7/start.o
 .rel.data.phy_drivers
                0x1fc3a838       0x10 arch/arm/cpu/armv7/start.o
 .rel.data.genphy_driver
                0x1fc3a848       0x20 arch/arm/cpu/armv7/start.o
 .rel.data.M88E1310_driver
                0x1fc3a868       0x20 arch/arm/cpu/armv7/start.o
 .rel.data.M88E1111S_driver
                0x1fc3a888       0x20 arch/arm/cpu/armv7/start.o
 .rel.data.M88E1011S_driver
                0x1fc3a8a8       0x20 arch/arm/cpu/armv7/start.o
 .rel.data.M88E1118_driver
                0x1fc3a8c8       0x20 arch/arm/cpu/armv7/start.o
 .rel.data.M88E1518_driver
                0x1fc3a8e8       0x20 arch/arm/cpu/armv7/start.o
 .rel.data.M88E1145_driver
                0x1fc3a908       0x20 arch/arm/cpu/armv7/start.o
 .rel.data.M88E1149S_driver
                0x1fc3a928       0x20 arch/arm/cpu/armv7/start.o
 .rel.data.M88E1121R_driver
                0x1fc3a948       0x20 arch/arm/cpu/armv7/start.o
 .rel.data.M88E1118R_driver
                0x1fc3a968       0x20 arch/arm/cpu/armv7/start.o
 .rel.text.get_current
                0x1fc3a988       0x10 arch/arm/cpu/armv7/start.o
 .rel.text.serial_register
                0x1fc3a998        0x8 arch/arm/cpu/armv7/start.o
 .rel.text.serial_stdio_init
                0x1fc3a9a0        0x8 arch/arm/cpu/armv7/start.o
 .rel.text.serial_assign
                0x1fc3a9a8       0x10 arch/arm/cpu/armv7/start.o
 .rel.text.serial_reinit_all
                0x00000000        0x0 arch/arm/cpu/armv7/start.o
 .rel.text.on_baudrate
                0x1fc3a9b8       0x20 arch/arm/cpu/armv7/start.o
 .rel.text.uart_zynq_serial_setbrg
                0x1fc3a9d8       0x10 arch/arm/cpu/armv7/start.o
 .rel.text.uart_zynq_serial_putc
                0x1fc3a9e8        0x8 arch/arm/cpu/armv7/start.o
 .rel.text.default_serial_console
                0x1fc3a9f0        0x8 arch/arm/cpu/armv7/start.o
 .rel.text.zynq_serial_initalize
                0x1fc3a9f8        0x8 arch/arm/cpu/armv7/start.o
 .rel.u_boot_list_2_env_clbk_2_baudrate
                0x1fc3aa00       0x10 arch/arm/cpu/armv7/start.o
 .rel.data.uart_zynq_serial0_device
                0x1fc3aa10       0x30 arch/arm/cpu/armv7/start.o
 .rel.data.uart_zynq_serial1_device
                0x00000000        0x0 arch/arm/cpu/armv7/start.o
 .rel.text.zynq_qspi_copy_write_data
                0x1fc3aa40       0x20 arch/arm/cpu/armv7/start.o
 .rel.text.zynq_qspi_fill_tx_fifo
                0x1fc3aa60        0x8 arch/arm/cpu/armv7/start.o
 .rel.text.zynq_qspi_copy_read_data
                0x1fc3aa68       0x20 arch/arm/cpu/armv7/start.o
 .rel.text.zynq_qspi_setup_transfer
                0x1fc3aa88       0x10 arch/arm/cpu/armv7/start.o
 .rel.text.spi_setup_slave
                0x1fc3aa98       0x30 arch/arm/cpu/armv7/start.o
 .rel.text.spi_xfer
                0x1fc3aac8       0x20 arch/arm/cpu/armv7/start.o
 .rel.text.get_fs
                0x1fc3aae8        0x8 arch/arm/cpu/armv7/start.o
 .rel.text.ext4fs_free_node
                0x1fc3aaf0        0x8 arch/arm/cpu/armv7/start.o
 .rel.text.ext4fs_read_file
                0x1fc3aaf8        0x8 arch/arm/cpu/armv7/start.o
 .rel.text.ext4fs_ls
                0x1fc3ab00       0x10 arch/arm/cpu/armv7/start.o
 .rel.text.ext4fs_read
                0x1fc3ab10       0x10 arch/arm/cpu/armv7/start.o
 .rel.text.ext4_read_file
                0x1fc3ab20       0x10 arch/arm/cpu/armv7/start.o
 .rel.text.read_allocated_block
                0x1fc3ab30       0xb8 arch/arm/cpu/armv7/start.o
 .rel.text.ext4fs_close
                0x1fc3abe8       0x58 arch/arm/cpu/armv7/start.o
 .rel.text.ext4fs_iterate_dir
                0x1fc3ac40       0x28 arch/arm/cpu/armv7/start.o
 .rel.text.ext4fs_find_file1
                0x1fc3ac68       0x10 arch/arm/cpu/armv7/start.o
 .rel.text.ext4fs_find_file
                0x1fc3ac78        0x8 arch/arm/cpu/armv7/start.o
 .rel.text.ext4fs_open
                0x1fc3ac80       0x10 arch/arm/cpu/armv7/start.o
 .rel.text.ext4fs_mount
                0x1fc3ac90       0x10 arch/arm/cpu/armv7/start.o
 .rel.text.ext4fs_set_blk_dev
                0x1fc3aca0       0x18 arch/arm/cpu/armv7/start.o
 .rel.text.ext4fs_devread
                0x1fc3acb8       0x38 arch/arm/cpu/armv7/start.o
 .rel.text.downcase
                0x1fc3acf0        0x8 arch/arm/cpu/armv7/start.o
 .rel.text.disk_read
                0x1fc3acf8       0x10 arch/arm/cpu/armv7/start.o
 .rel.text.read_bootsectandvi
                0x1fc3ad08       0x20 arch/arm/cpu/armv7/start.o
 .rel.text.get_cluster
                0x1fc3ad28        0x8 arch/arm/cpu/armv7/start.o
 .rel.text.get_vfatname
                0x1fc3ad30       0x18 arch/arm/cpu/armv7/start.o
 .rel.text.fat_set_blk_dev
                0x1fc3ad48       0x28 arch/arm/cpu/armv7/start.o
 .rel.text.fat_register_device
                0x00000000        0x0 arch/arm/cpu/armv7/start.o
 .rel.text.do_fat_read_at
                0x1fc3ad70       0x58 arch/arm/cpu/armv7/start.o
 .rel.text.file_fat_detectfs
                0x1fc3adc8       0xb0 arch/arm/cpu/armv7/start.o
 .rel.text.file_fat_read_at
                0x1fc3ae78        0x8 arch/arm/cpu/armv7/start.o
 .rel.text.fat_read_file
                0x1fc3ae80        0x8 arch/arm/cpu/armv7/start.o
 .rel.text.file_getfsname
                0x00000000        0x0 arch/arm/cpu/armv7/start.o
 .rel.text.file_cd
                0x00000000        0x0 arch/arm/cpu/armv7/start.o
 .rel.text.file_detectfs
                0x00000000        0x0 arch/arm/cpu/armv7/start.o
 .rel.text.file_ls
                0x00000000        0x0 arch/arm/cpu/armv7/start.o
 .rel.text.file_read
                0x00000000        0x0 arch/arm/cpu/armv7/start.o
 .rel.rodata.filesystems
                0x00000000        0x0 arch/arm/cpu/armv7/start.o
 .rel.text.fs_probe_unsupported
                0x1fc3ae88        0x8 arch/arm/cpu/armv7/start.o
 .rel.text.fs_get_info
                0x1fc3ae90        0x8 arch/arm/cpu/armv7/start.o
 .rel.text.fs_close
                0x1fc3ae98        0x8 arch/arm/cpu/armv7/start.o
 .rel.text.fs_set_blk_dev
                0x1fc3aea0       0x20 arch/arm/cpu/armv7/start.o
 .rel.text.fs_ls
                0x1fc3aec0        0x8 arch/arm/cpu/armv7/start.o
 .rel.text.fs_read
                0x1fc3aec8       0x10 arch/arm/cpu/armv7/start.o
 .rel.text.fs_write
                0x00000000        0x0 arch/arm/cpu/armv7/start.o
 .rel.text.do_load
                0x1fc3aed8       0x48 arch/arm/cpu/armv7/start.o
 .rel.text.do_ls
                0x1fc3af20        0x8 arch/arm/cpu/armv7/start.o
 .rel.text.do_save
                0x00000000        0x0 arch/arm/cpu/armv7/start.o
 .rel.data.fstypes
                0x1fc3af28       0x68 arch/arm/cpu/armv7/start.o
 .rel.text.fdt_next_tag
                0x1fc3af90       0x48 arch/arm/cpu/armv7/start.o
 .rel.text.fdt_create_empty_tree
                0x00000000        0x0 arch/arm/cpu/armv7/start.o
 .rel.text.fdt_get_phandle
                0x00000000        0x0 arch/arm/cpu/armv7/start.o
 .rel.text.fdt_get_alias_namelen
                0x1fc3afd8        0x8 arch/arm/cpu/armv7/start.o
 .rel.text.fdt_node_check_compatible
                0x00000000        0x0 arch/arm/cpu/armv7/start.o
 .rel.text.fdt_strerror
                0x1fc3afe0       0x20 arch/arm/cpu/armv7/start.o
 .rel.text.fdt_find_regions
                0x00000000        0x0 arch/arm/cpu/armv7/start.o
 .rel.rodata.fdt_errtable
                0x1fc3b000       0x58 arch/arm/cpu/armv7/start.o
 .rel.text.cyg_crc16
                0x1fc3b058        0x8 arch/arm/cpu/armv7/start.o
 .rel.text.crc32_no_comp
                0x1fc3b060        0x8 arch/arm/cpu/armv7/start.o
 .rel.text.crc7
                0x00000000        0x0 arch/arm/cpu/armv7/start.o
 .rel.text.display_options
                0x00000000        0x0 arch/arm/cpu/armv7/start.o
 .rel.text.print_size
                0x1fc3b068       0x28 arch/arm/cpu/armv7/start.o
 .rel.text.print_buffer
                0x1fc3b090       0x28 arch/arm/cpu/armv7/start.o
 .rel.text.zunzip
                0x1fc3b0b8       0x28 arch/arm/cpu/armv7/start.o
 .rel.text.gunzip
                0x1fc3b0e0       0x10 arch/arm/cpu/armv7/start.o
 .rel.text.hang
                0x1fc3b0f0        0x8 arch/arm/cpu/armv7/start.o
 .rel.text.match_string.isra.3
                0x1fc3b0f8        0x8 arch/arm/cpu/armv7/start.o
 .rel.text.hcreate_r
                0x1fc3b100        0x8 arch/arm/cpu/armv7/start.o
 .rel.text.hdestroy_r
                0x1fc3b108        0x8 arch/arm/cpu/armv7/start.o
 .rel.text.hmatch_r
                0x00000000        0x0 arch/arm/cpu/armv7/start.o
 .rel.text.hsearch_r
                0x1fc3b110        0x8 arch/arm/cpu/armv7/start.o
 .rel.text.hdelete_r
                0x1fc3b118        0x8 arch/arm/cpu/armv7/start.o
 .rel.text.hexport_r
                0x1fc3b120       0x18 arch/arm/cpu/armv7/start.o
 .rel.text.himport_r
                0x1fc3b138       0x20 arch/arm/cpu/armv7/start.o
 .rel.text.skip_spaces
                0x1fc3b158        0x8 arch/arm/cpu/armv7/start.o
 .rel.text.strim
                0x1fc3b160        0x8 arch/arm/cpu/armv7/start.o
 .rel.text.lmb_alloc_base
                0x1fc3b168        0x8 arch/arm/cpu/armv7/start.o
 .rel.text.sha1_finish
                0x1fc3b170        0x8 arch/arm/cpu/armv7/start.o
 .rel.text.strncasecmp
                0x00000000        0x0 arch/arm/cpu/armv7/start.o
 .rel.text.strtok
                0x00000000        0x0 arch/arm/cpu/armv7/start.o
 .rel.text.strmhz
                0x00000000        0x0 arch/arm/cpu/armv7/start.o
 .rel.text.string.isra.0
                0x1fc3b178        0x8 arch/arm/cpu/armv7/start.o
 .rel.text.number.isra.4
                0x1fc3b180        0x8 arch/arm/cpu/armv7/start.o
 .rel.text.vsnprintf_internal.isra.6
                0x1fc3b188       0x10 arch/arm/cpu/armv7/start.o
 .rel.text.simple_strtoul
                0x1fc3b198        0x8 arch/arm/cpu/armv7/start.o
 .rel.text.simple_strtoull
                0x1fc3b1a0        0x8 arch/arm/cpu/armv7/start.o
 .rel.text.__assert_fail
                0x00000000        0x0 arch/arm/cpu/armv7/start.o
 .rel.text.simple_itoa
                0x1fc3b1a8        0x8 arch/arm/cpu/armv7/start.o
 .rel.text.print_grouped_ull
                0x00000000        0x0 arch/arm/cpu/armv7/start.o
 .rel.text.inflate_fast
                0x1fc3b1b0       0x18 arch/arm/cpu/armv7/start.o
 .rel.text.inflate_table
                0x1fc3b1c8       0x20 arch/arm/cpu/armv7/start.o
 .rel.text.inflateInit2_
                0x1fc3b1e8       0x10 arch/arm/cpu/armv7/start.o
 .rel.text.inflate
                0x1fc3b1f8      0x188 arch/arm/cpu/armv7/start.o
 .rel.rodata.z_errmsg
                0x00000000        0x0 arch/arm/cpu/armv7/start.o
 .rel.text.ArpInit
                0x1fc3b380       0x30 arch/arm/cpu/armv7/start.o
 .rel.text.arp_raw_request
                0x1fc3b3b0       0x18 arch/arm/cpu/armv7/start.o
 .rel.text.ArpRequest
                0x1fc3b3c8       0x38 arch/arm/cpu/armv7/start.o
 .rel.text.ArpTimeoutCheck
                0x1fc3b400       0x20 arch/arm/cpu/armv7/start.o
 .rel.text.ArpReceive
                0x1fc3b420       0x40 arch/arm/cpu/armv7/start.o
 .rel.text.DhcpOptionsProcess
                0x1fc3b460       0x68 arch/arm/cpu/armv7/start.o
 .rel.text.DhcpHandler
                0x1fc3b4c8       0x60 arch/arm/cpu/armv7/start.o
 .rel.text.BootpRequest
                0x1fc3b528       0x50 arch/arm/cpu/armv7/start.o
 .rel.text.BootpTimeout
                0x1fc3b578       0x20 arch/arm/cpu/armv7/start.o
 .rel.text.eth_current_changed
                0x1fc3b598       0x10 arch/arm/cpu/armv7/start.o
 .rel.text.eth_setenv_enetaddr
                0x1fc3b5a8        0x8 arch/arm/cpu/armv7/start.o
 .rel.text.eth_getenv_enetaddr_by_index
                0x1fc3b5b0       0x10 arch/arm/cpu/armv7/start.o
 .rel.text.eth_get_dev_by_name
                0x00000000        0x0 arch/arm/cpu/armv7/start.o
 .rel.text.eth_get_dev_by_index
                0x1fc3b5c0        0x8 arch/arm/cpu/armv7/start.o
 .rel.text.eth_get_dev_index
                0x1fc3b5c8        0x8 arch/arm/cpu/armv7/start.o
 .rel.text.eth_write_hwaddr
                0x1fc3b5d0       0x48 arch/arm/cpu/armv7/start.o
 .rel.text.eth_register
                0x1fc3b618       0x18 arch/arm/cpu/armv7/start.o
 .rel.text.eth_unregister
                0x00000000        0x0 arch/arm/cpu/armv7/start.o
 .rel.text.eth_initialize
                0x1fc3b630       0x90 arch/arm/cpu/armv7/start.o
 .rel.text.eth_halt
                0x1fc3b6c0        0x8 arch/arm/cpu/armv7/start.o
 .rel.text.eth_send
                0x1fc3b6c8        0x8 arch/arm/cpu/armv7/start.o
 .rel.text.eth_rx
                0x1fc3b6d0        0x8 arch/arm/cpu/armv7/start.o
 .rel.text.eth_try_another
                0x1fc3b6d8       0x28 arch/arm/cpu/armv7/start.o
 .rel.text.eth_init
                0x1fc3b700       0x20 arch/arm/cpu/armv7/start.o
 .rel.text.eth_set_current
                0x1fc3b720       0x20 arch/arm/cpu/armv7/start.o
 .rel.text.eth_get_name
                0x1fc3b740       0x10 arch/arm/cpu/armv7/start.o
 .rel.text.startAgainTimeout
                0x1fc3b750        0x8 arch/arm/cpu/armv7/start.o
 .rel.text.net_clear_handlers
                0x1fc3b758       0x20 arch/arm/cpu/armv7/start.o
 .rel.text.net_auto_load
                0x1fc3b778       0x10 arch/arm/cpu/armv7/start.o
 .rel.text.NetStartAgain
                0x1fc3b788       0x78 arch/arm/cpu/armv7/start.o
 .rel.text.net_get_udp_handler
                0x00000000        0x0 arch/arm/cpu/armv7/start.o
 .rel.text.net_set_udp_handler
                0x1fc3b800       0x10 arch/arm/cpu/armv7/start.o
 .rel.text.net_get_arp_handler
                0x1fc3b810        0x8 arch/arm/cpu/armv7/start.o
 .rel.text.net_set_arp_handler
                0x1fc3b818       0x10 arch/arm/cpu/armv7/start.o
 .rel.text.NetSetTimeout
                0x1fc3b828       0x18 arch/arm/cpu/armv7/start.o
 .rel.text.NetReceive
                0x1fc3b840       0x38 arch/arm/cpu/armv7/start.o
 .rel.text.NetEthHdrSize
                0x1fc3b878        0x8 arch/arm/cpu/armv7/start.o
 .rel.text.NetSetEther
                0x1fc3b880       0x10 arch/arm/cpu/armv7/start.o
 .rel.text.net_update_ether
                0x1fc3b890        0x8 arch/arm/cpu/armv7/start.o
 .rel.text.net_set_ip_header
                0x1fc3b898        0x8 arch/arm/cpu/armv7/start.o
 .rel.text.net_set_udp_header
                0x1fc3b8a0        0x8 arch/arm/cpu/armv7/start.o
 .rel.text.NetSendUDPPacket
                0x1fc3b8a8       0x40 arch/arm/cpu/armv7/start.o
 .rel.text.on_bootfile
                0x1fc3b8e8        0x8 arch/arm/cpu/armv7/start.o
 .rel.text.ip_to_string
                0x1fc3b8f0        0x8 arch/arm/cpu/armv7/start.o
 .rel.text.VLAN_to_string
                0x00000000        0x0 arch/arm/cpu/armv7/start.o
 .rel.text.NetInitLoop
                0x1fc3b8f8       0x78 arch/arm/cpu/armv7/start.o
 .rel.text.net_init
                0x1fc3b970       0x20 arch/arm/cpu/armv7/start.o
 .rel.text.NetLoop
                0x1fc3b990      0x1a0 arch/arm/cpu/armv7/start.o
 .rel.text.ping_timeout
                0x1fc3bb30        0x8 arch/arm/cpu/armv7/start.o
 .rel.text.ping_start
                0x1fc3bb38       0x58 arch/arm/cpu/armv7/start.o
 .rel.text.ping_receive
                0x1fc3bb90       0x18 arch/arm/cpu/armv7/start.o
 .rel.text.TftpSend
                0x1fc3bba8       0xb8 arch/arm/cpu/armv7/start.o
 .rel.text.TftpHandler
                0x1fc3bc60       0xc0 arch/arm/cpu/armv7/start.o
 .rel.text.TftpTimeout
                0x1fc3bd20       0x40 arch/arm/cpu/armv7/start.o
 .rel.text.TftpStart
                0x1fc3bd60      0x130 arch/arm/cpu/armv7/start.o
 .rel.u_boot_list_2_env_clbk_2_bootfile
                0x1fc3be90       0x10 arch/arm/cpu/armv7/start.o
 .rel.text.board_init
                0x1fc3bea0       0x30 arch/arm/cpu/armv7/start.o
 .rel.text.board_late_init
                0x00000000        0x0 arch/arm/cpu/armv7/start.o
 .rel.data.fpga010
                0x1fc3bed0        0x8 arch/arm/cpu/armv7/start.o
 .rel.data.fpga020
                0x1fc3bed8        0x8 arch/arm/cpu/armv7/start.o
 .rel.data.fpga100
                0x1fc3bee0        0x8 arch/arm/cpu/armv7/start.o
 .rel.data.fpga030
                0x1fc3bee8        0x8 arch/arm/cpu/armv7/start.o
 .rel.data.fpga045
                0x1fc3bef0        0x8 arch/arm/cpu/armv7/start.o
 .rel.text.raise
                0x1fc3bef8        0x8 arch/arm/cpu/armv7/start.o

.rel_dyn_end    0x1fc3bf00        0x0
 *(.__rel_dyn_end)
 .__rel_dyn_end
                0x1fc3bf00        0x0 arch/arm/lib/libarm.o
                0x1fc3bf00                _end = .
                0x1fc3c000                . = ALIGN (0x1000)

.mmutable
 *(.mmutable)

.bss_start      0x1fc35ed8        0x0
 *(.__bss_start)
 .__bss_start   0x1fc35ed8        0x0 arch/arm/lib/libarm.o
                0x1fc35ed8                __bss_start
                0x1fc35ed8                __bss_base = .

.bss            0x1fc35ed8    0x34d7c
 *(.bss*)
 .bss.monitor_flash_len
                0x1fc35ed8        0x4 arch/arm/lib/libarm.o
                0x1fc35ed8                monitor_flash_len
 .bss.images    0x1fc35edc      0x158 common/libcommon.o
                0x1fc35edc                images
 .bss.data.6855
                0x1fc36034      0x400 common/libcommon.o
 .bss.working_fdt
                0x1fc36434        0x4 common/libcommon.o
                0x1fc36434                working_fdt
 .bss.send_parms
                0x1fc36438       0x14 common/libcommon.o
 .bss.os_data_addr_saved
                0x1fc3644c        0x4 common/libcommon.o
 .bss.his_pad_char
                0x1fc36450        0x1 common/libcommon.o
 .bss.a_b       0x1fc36451       0x18 common/libcommon.o
 *fill*         0x1fc36469        0x3 
 .bss.os_data_char
                0x1fc3646c        0x4 common/libcommon.o
 .bss.os_data_state
                0x1fc36470        0x4 common/libcommon.o
 .bss.k_data_escape
                0x1fc36474        0x4 common/libcommon.o
 .bss.os_data_state_saved
                0x1fc36478        0x4 common/libcommon.o
 .bss.os_data_addr
                0x1fc3647c        0x4 common/libcommon.o
 .bss.send_ptr  0x1fc36480        0x4 common/libcommon.o
 .bss.his_pad_count
                0x1fc36484        0x4 common/libcommon.o
 .bss.bin_start_address
                0x1fc36488        0x4 common/libcommon.o
 .bss.his_quote
                0x1fc3648c        0x1 common/libcommon.o
 *fill*         0x1fc3648d        0x3 
 .bss.os_data_init
                0x1fc36490        0x4 common/libcommon.o
 .bss.his_eol   0x1fc36494        0x1 common/libcommon.o
 *fill*         0x1fc36495        0x3 
 .bss.k_data_escape_saved
                0x1fc36498        0x4 common/libcommon.o
 .bss.dp_last_addr
                0x1fc3649c        0x4 common/libcommon.o
 .bss.base_address
                0x1fc364a0        0x4 common/libcommon.o
 .bss.mm_last_size
                0x1fc364a4        0x4 common/libcommon.o
 .bss.mm_last_addr
                0x1fc364a8        0x4 common/libcommon.o
 .bss.dp_last_size
                0x1fc364ac        0x4 common/libcommon.o
 .bss.flash     0x1fc364b0        0x4 common/libcommon.o
 .bss.bus       0x1fc364b4        0x4 common/libcommon.o
 .bss.cs        0x1fc364b8        0x4 common/libcommon.o
 .bss.bitlen    0x1fc364bc        0x4 common/libcommon.o
 .bss.dout      0x1fc364c0       0x20 common/libcommon.o
 .bss.din       0x1fc364e0       0x20 common/libcommon.o
 .bss.mode      0x1fc36500        0x4 common/libcommon.o
 .bss.ctrlc_was_pressed
                0x1fc36504        0x4 common/libcommon.o
 .bss.ctrlc_disabled
                0x1fc36508        0x4 common/libcommon.o
 .bss.max_total_mem
                0x1fc3650c        0x4 common/libcommon.o
 .bss.mem_malloc_brk
                0x1fc36510        0x4 common/libcommon.o
                0x1fc36510                mem_malloc_brk
 .bss.max_sbrked_mem
                0x1fc36514        0x4 common/libcommon.o
 .bss.current_mallinfo
                0x1fc36518       0x28 common/libcommon.o
 .bss.mem_malloc_end
                0x1fc36540        0x4 common/libcommon.o
                0x1fc36540                mem_malloc_end
 .bss.top_pad   0x1fc36544        0x4 common/libcommon.o
 .bss.mem_malloc_start
                0x1fc36548        0x4 common/libcommon.o
                0x1fc36548                mem_malloc_start
 .bss.env_flash
                0x1fc3654c        0x4 common/libcommon.o
 .bss.flag_repeat
                0x1fc36550        0x4 common/libcommon.o
 .bss.buf.7162  0x1fc36554       0x28 common/libcommon.o
 .bss.ifs       0x1fc3657c        0x4 common/libcommon.o
 .bss.the_command.6962
                0x1fc36580      0x100 common/libcommon.o
 .bss.last_return_code
                0x1fc36680        0x4 common/libcommon.o
 .bss.map       0x1fc36684      0x100 common/libcommon.o
 .bss.do_repeat
                0x1fc36784        0x4 common/libcommon.o
 .bss.top_vars  0x1fc36788        0x4 common/libcommon.o
 .bss.load_addr
                0x1fc3678c        0x4 common/libcommon.o
                0x1fc3678c                load_addr
 .bss.hist_list
                0x1fc36790       0x50 common/libcommon.o
 .bss.hist_lines
                0x1fc367e0     0x1414 common/libcommon.o
 .bss.hist_max  0x1fc37bf4        0x4 common/libcommon.o
 .bss.initted.7242
                0x1fc37bf8        0x4 common/libcommon.o
 .bss.hist_add_idx
                0x1fc37bfc        0x4 common/libcommon.o
 .bss.hist_num  0x1fc37c00        0x4 common/libcommon.o
 .bss.console_buffer
                0x1fc37c04      0x101 common/libcommon.o
                0x1fc37c04                console_buffer
 *fill*         0x1fc37d05        0x3 
 .bss.current_mii
                0x1fc37d08        0x4 common/libcommon.o
 .bss.mii_devs  0x1fc37d0c        0x8 common/libcommon.o
 .bss.devs      0x1fc37d14       0x3c common/libcommon.o
 .bss.stdio_devices
                0x1fc37d50        0xc common/libcommon.o
                0x1fc37d50                stdio_devices
 .bss.xyz       0x1fc37d5c      0x434 common/libcommon.o
 .bss.desc_table
                0x1fc38190       0x28 drivers/fpga/libfpga.o
 .bss.mmc_devices
                0x1fc381b8        0x8 drivers/mmc/libmmc.o
 .bss.aligned_buffer
                0x1fc381c0        0x4 drivers/mmc/libmmc.o
                0x1fc381c0                aligned_buffer
 .bss.input_buffer
                0x1fc381c4      0x200 drivers/net/libnet.o
 .bss.nc_ip     0x1fc383c4        0x4 drivers/net/libnet.o
 .bss.net_loop_last_protocol
                0x1fc383c8        0x4 drivers/net/libnet.o
                0x1fc383c8                net_loop_last_protocol
 .bss.input_offset
                0x1fc383cc        0x4 drivers/net/libnet.o
 .bss.nc_ether  0x1fc383d0        0x6 drivers/net/libnet.o
 *fill*         0x1fc383d6        0x2 
 .bss.env_changed_id.6914
                0x1fc383d8        0x4 drivers/net/libnet.o
 .bss.net_timeout
                0x1fc383dc        0x4 drivers/net/libnet.o
 .bss.our_ip.6913
                0x1fc383e0        0x4 drivers/net/libnet.o
 .bss.netmask.6912
                0x1fc383e4        0x4 drivers/net/libnet.o
 .bss.nc_in_port
                0x1fc383e8        0x2 drivers/net/libnet.o
 *fill*         0x1fc383ea        0x2 
 .bss.output_packet
                0x1fc383ec        0x4 drivers/net/libnet.o
 .bss.input_recursion
                0x1fc383f0        0x4 drivers/net/libnet.o
 .bss.output_packet_len
                0x1fc383f4        0x4 drivers/net/libnet.o
 .bss.output_recursion
                0x1fc383f8        0x4 drivers/net/libnet.o
 .bss.nc_out_port
                0x1fc383fc        0x2 drivers/net/libnet.o
 *fill*         0x1fc383fe        0x2 
 .bss.input_size
                0x1fc38400        0x4 drivers/net/libnet.o
 .bss.serial_devices
                0x1fc38404        0x4 drivers/serial/libserial.o
 .bss.serial_current
                0x1fc38408        0x4 drivers/serial/libserial.o
 .bss.current_u_page.8876
                0x1fc3840c        0x1 drivers/spi/libspi.o
 *fill*         0x1fc3840d        0x3 
 .bss.ext_fs    0x1fc38410       0x48 fs/ext4/libext4fs.o
                0x1fc38410                ext_fs
 .bss.ext4fs_indir3_block
                0x1fc38458        0x4 fs/ext4/libext4fs.o
                0x1fc38458                ext4fs_indir3_block
 .bss.ext4fs_root
                0x1fc3845c        0x4 fs/ext4/libext4fs.o
                0x1fc3845c                ext4fs_root
 .bss.ext4fs_indir3_size
                0x1fc38460        0x4 fs/ext4/libext4fs.o
                0x1fc38460                ext4fs_indir3_size
 .bss.ext4fs_indir1_block
                0x1fc38464        0x4 fs/ext4/libext4fs.o
                0x1fc38464                ext4fs_indir1_block
 .bss.ext4fs_indir2_size
                0x1fc38468        0x4 fs/ext4/libext4fs.o
                0x1fc38468                ext4fs_indir2_size
 .bss.ext4fs_indir2_block
                0x1fc3846c        0x4 fs/ext4/libext4fs.o
                0x1fc3846c                ext4fs_indir2_block
 .bss.ext4fs_indir1_size
                0x1fc38470        0x4 fs/ext4/libext4fs.o
                0x1fc38470                ext4fs_indir1_size
 .bss.symlinknest
                0x1fc38474        0x4 fs/ext4/libext4fs.o
 .bss.ext4fs_file
                0x1fc38478        0x4 fs/ext4/libext4fs.o
                0x1fc38478                ext4fs_file
 .bss.part_info
                0x1fc3847c        0x4 fs/ext4/libext4fs.o
 .bss.ext4fs_block_dev_desc
                0x1fc38480        0x4 fs/ext4/libext4fs.o
 .bss.part_offset
                0x1fc38484        0x4 fs/ext4/libext4fs.o
                0x1fc38484                part_offset
 *fill*         0x1fc38488       0x18 
 .bss.do_fat_read_at_block
                0x1fc384a0    0x10000 fs/fat/libfat.o
                0x1fc384a0                do_fat_read_at_block
 .bss.get_dentfromdir_block
                0x1fc484a0    0x10000 fs/fat/libfat.o
                0x1fc484a0                get_dentfromdir_block
 .bss.cur_part_info
                0x1fc584a0       0x50 fs/fat/libfat.o
 *fill*         0x1fc584f0       0x10 
 .bss.get_contents_vfatname_block
                0x1fc58500    0x10000 fs/fat/libfat.o
                0x1fc58500                get_contents_vfatname_block
 .bss.cur_dev   0x1fc68500        0x4 fs/fat/libfat.o
 .bss.fs_partition
                0x1fc68504       0x50 fs/libfs.o
 .bss.fs_type   0x1fc68554        0x4 fs/libfs.o
 .bss.fs_dev_desc
                0x1fc68558        0x4 fs/libfs.o
 .bss.errno     0x1fc6855c        0x4 lib/libgeneric.o
                0x1fc6855c                errno
 .bss.local.6992
                0x1fc68560       0x16 lib/libgeneric.o
 *fill*         0x1fc68576        0x2 
 .bss.NetArpWaitPacketIP
                0x1fc68578        0x4 net/libnet.o
                0x1fc68578                NetArpWaitPacketIP
 .bss.NetArpWaitTimerStart
                0x1fc6857c        0x4 net/libnet.o
                0x1fc6857c                NetArpWaitTimerStart
 .bss.NetArpWaitReplyIP
                0x1fc68580        0x4 net/libnet.o
 .bss.NetArpWaitTxPacketSize
                0x1fc68584        0x4 net/libnet.o
                0x1fc68584                NetArpWaitTxPacketSize
 .bss.NetArpWaitTry
                0x1fc68588        0x4 net/libnet.o
                0x1fc68588                NetArpWaitTry
 .bss.NetArpTxPacket
                0x1fc6858c        0x4 net/libnet.o
 .bss.NetArpPacketBuf
                0x1fc68590      0x620 net/libnet.o
 .bss.NetArpWaitPacketMAC
                0x1fc68bb0        0x4 net/libnet.o
                0x1fc68bb0                NetArpWaitPacketMAC
 .bss.dhcp_state
                0x1fc68bb4        0x4 net/libnet.o
 .bss.BootpTry  0x1fc68bb8        0x4 net/libnet.o
                0x1fc68bb8                BootpTry
 .bss.NetDHCPServerIP
                0x1fc68bbc        0x4 net/libnet.o
 .bss.BootpID   0x1fc68bc0        0x4 net/libnet.o
                0x1fc68bc0                BootpID
 .bss.dhcp_leasetime
                0x1fc68bc4        0x4 net/libnet.o
 .bss.env_changed_id.7390
                0x1fc68bc8        0x4 net/libnet.o
 .bss.act.7389  0x1fc68bcc        0x4 net/libnet.o
 .bss.eth_current
                0x1fc68bd0        0x4 net/libnet.o
                0x1fc68bd0                eth_current
 .bss.first_failed.7384
                0x1fc68bd4        0x4 net/libnet.o
 .bss.index.7337
                0x1fc68bd8        0x4 net/libnet.o
 .bss.eth_devices
                0x1fc68bdc        0x4 net/libnet.o
 .bss.NetOurEther
                0x1fc68be0        0x6 net/libnet.o
                0x1fc68be0                NetOurEther
 *fill*         0x1fc68be6        0x2 
 .bss.NetServerIP
                0x1fc68be8        0x4 net/libnet.o
                0x1fc68be8                NetServerIP
 .bss.NetRestarted
                0x1fc68bec        0x4 net/libnet.o
 .bss.net_state
                0x1fc68bf0        0x4 net/libnet.o
                0x1fc68bf0                net_state
 .bss.NetRxPackets
                0x1fc68bf4       0x10 net/libnet.o
                0x1fc68bf4                NetRxPackets
 .bss.NetBootFileSize
                0x1fc68c04        0x2 net/libnet.o
                0x1fc68c04                NetBootFileSize
 .bss.NetEtherNullAddr
                0x1fc68c06        0x6 net/libnet.o
                0x1fc68c06                NetEtherNullAddr
 .bss.NetRxPacket
                0x1fc68c0c        0x4 net/libnet.o
                0x1fc68c0c                NetRxPacket
 .bss.udp_packet_handler
                0x1fc68c10        0x4 net/libnet.o
 .bss.NetDevExists
                0x1fc68c14        0x4 net/libnet.o
 .bss.timeStart
                0x1fc68c18        0x4 net/libnet.o
 .bss.timeHandler
                0x1fc68c1c        0x4 net/libnet.o
 .bss.NetTryCount
                0x1fc68c20        0x4 net/libnet.o
 .bss.NetOurDNSIP
                0x1fc68c24        0x4 net/libnet.o
                0x1fc68c24                NetOurDNSIP
 .bss.NetOurSubnetMask
                0x1fc68c28        0x4 net/libnet.o
                0x1fc68c28                NetOurSubnetMask
 .bss.env_changed_id.6979
                0x1fc68c2c        0x4 net/libnet.o
 .bss.NetTxPacket
                0x1fc68c30        0x4 net/libnet.o
                0x1fc68c30                NetTxPacket
 .bss.NetBootFileXferSize
                0x1fc68c34        0x4 net/libnet.o
                0x1fc68c34                NetBootFileXferSize
 .bss.NetOurIP  0x1fc68c38        0x4 net/libnet.o
                0x1fc68c38                NetOurIP
 .bss.NetOurHostName
                0x1fc68c3c       0x20 net/libnet.o
                0x1fc68c3c                NetOurHostName
 .bss.NetOurNISDomain
                0x1fc68c5c       0x20 net/libnet.o
                0x1fc68c5c                NetOurNISDomain
 .bss.NetIPID   0x1fc68c7c        0x4 net/libnet.o
                0x1fc68c7c                NetIPID
 .bss.NetOurGatewayIP
                0x1fc68c80        0x4 net/libnet.o
                0x1fc68c80                NetOurGatewayIP
 .bss.arp_packet_handler
                0x1fc68c84        0x4 net/libnet.o
 .bss.NetServerEther
                0x1fc68c88        0x6 net/libnet.o
                0x1fc68c88                NetServerEther
 *fill*         0x1fc68c8e        0x2 
 .bss.NetRestartWrap
                0x1fc68c90        0x4 net/libnet.o
                0x1fc68c90                NetRestartWrap
 .bss.NetRxPacketLen
                0x1fc68c94        0x4 net/libnet.o
                0x1fc68c94                NetRxPacketLen
 .bss.BootFile  0x1fc68c98       0x80 net/libnet.o
                0x1fc68c98                BootFile
 .bss.timeDelta
                0x1fc68d18        0x4 net/libnet.o
 .bss.PktBuf    0x1fc68d1c     0x1e20 net/libnet.o
 .bss.NetOurRootPath
                0x1fc6ab3c       0x40 net/libnet.o
                0x1fc6ab3c                NetOurRootPath
 .bss.NetPingIP
                0x1fc6ab7c        0x4 net/libnet.o
                0x1fc6ab7c                NetPingIP
 .bss.PingSeqNo
                0x1fc6ab80        0x2 net/libnet.o
 *fill*         0x1fc6ab82        0x2 
 .bss.time_start
                0x1fc6ab84        0x4 net/libnet.o
 .bss.TftpTimeoutCount
                0x1fc6ab88        0x4 net/libnet.o
 .bss.TftpBlockWrap
                0x1fc6ab8c        0x4 net/libnet.o
 .bss.TftpBlock
                0x1fc6ab90        0x4 net/libnet.o
 .bss.TftpOurPort
                0x1fc6ab94        0x4 net/libnet.o
 .bss.TftpRemoteIP
                0x1fc6ab98        0x4 net/libnet.o
 .bss.TftpState
                0x1fc6ab9c        0x4 net/libnet.o
 .bss.TftpRemotePort
                0x1fc6aba0        0x4 net/libnet.o
 .bss.default_filename
                0x1fc6aba4        0xd net/libnet.o
 .bss.tftp_filename
                0x1fc6abb1       0x80 net/libnet.o
 *fill*         0x1fc6ac31        0x3 
 .bss.TftpBlockWrapOffset
                0x1fc6ac34        0x4 net/libnet.o
 .bss.TftpLastBlock
                0x1fc6ac38        0x4 net/libnet.o
 .bss.fpga      0x1fc6ac3c       0x18 board/xilinx/zynq/libzynq.o
                0x1fc6ac3c                fpga
                0x1fc6ac54                . = ALIGN (0x4)
                0x1fc6ac54                __bss_limit = .

.dynbss         0x1fc35ed8        0x0 load address 0x1fc6ac54
 .dynbss        0x00000000        0x0 arch/arm/cpu/armv7/start.o

.bss_end        0x1fc6ac54        0x0
 *(.__bss_end)
 .__bss_end     0x1fc6ac54        0x0 arch/arm/lib/libarm.o
                0x1fc6ac54                __bss_end

/DISCARD/
 *(.dynsym)
 *(.dynstr*)
 *(.dynamic*)
 *(.plt*)
 *(.interp*)
 *(.gnu*)
 *(.ARM.exidx*)
 *(.gnu.linkonce.armexidx.*)
Address of section .text set to 0x1fc00000
LOAD arch/arm/cpu/armv7/start.o
START GROUP
LOAD api/libapi.o
LOAD arch/arm/cpu/armv7/libarmv7.o
LOAD arch/arm/cpu/armv7/zynq/libzynq.o
LOAD arch/arm/lib/libarm.o
LOAD common/libcommon.o
LOAD disk/libdisk.o
LOAD drivers/bios_emulator/libatibiosemu.o
LOAD drivers/block/libblock.o
LOAD drivers/crypto/libcrypto.o
LOAD drivers/dfu/libdfu.o
LOAD drivers/dma/libdma.o
LOAD drivers/fpga/libfpga.o
LOAD drivers/gpio/libgpio.o
LOAD drivers/hwmon/libhwmon.o
LOAD drivers/i2c/libi2c.o
LOAD drivers/input/libinput.o
LOAD drivers/misc/libmisc.o
LOAD drivers/mmc/libmmc.o
LOAD drivers/mtd/libmtd.o
LOAD drivers/mtd/nand/libnand.o
LOAD drivers/mtd/onenand/libonenand.o
LOAD drivers/mtd/spi/libspi_flash.o
LOAD drivers/mtd/ubi/libubi.o
LOAD drivers/net/libnet.o
LOAD drivers/net/phy/libphy.o
LOAD drivers/pci/libpci.o
LOAD drivers/pcmcia/libpcmcia.o
LOAD drivers/power/battery/libbattery.o
LOAD drivers/power/fuel_gauge/libfuel_gauge.o
LOAD drivers/power/libpower.o
LOAD drivers/power/pmic/libpmic.o
LOAD drivers/rtc/librtc.o
LOAD drivers/serial/libserial.o
LOAD drivers/sound/libsound.o
LOAD drivers/spi/libspi.o
LOAD drivers/tpm/libtpm.o
LOAD drivers/twserial/libtws.o
LOAD drivers/usb/eth/libusb_eth.o
LOAD drivers/usb/gadget/libusb_gadget.o
LOAD drivers/usb/host/libusb_host.o
LOAD drivers/usb/musb-new/libusb_musb-new.o
LOAD drivers/usb/musb/libusb_musb.o
LOAD drivers/usb/phy/libusb_phy.o
LOAD drivers/usb/ulpi/libusb_ulpi.o
LOAD drivers/video/libvideo.o
LOAD drivers/watchdog/libwatchdog.o
LOAD fs/cbfs/libcbfs.o
LOAD fs/cramfs/libcramfs.o
LOAD fs/ext4/libext4fs.o
LOAD fs/fat/libfat.o
LOAD fs/fdos/libfdos.o
LOAD fs/jffs2/libjffs2.o
LOAD fs/libfs.o
LOAD fs/reiserfs/libreiserfs.o
LOAD fs/sandbox/libsandboxfs.o
LOAD fs/ubifs/libubifs.o
LOAD fs/yaffs2/libyaffs2.o
LOAD fs/zfs/libzfs.o
LOAD lib/libfdt/libfdt.o
LOAD lib/libgeneric.o
LOAD lib/lzma/liblzma.o
LOAD lib/lzo/liblzo.o
LOAD lib/rsa/librsa.o
LOAD lib/zlib/libz.o
LOAD net/libnet.o
LOAD post/libpost.o
LOAD test/libtest.o
LOAD board/xilinx/zynq/libzynq.o
END GROUP
LOAD /home/xyin/Embedded_System_Lab/project_1_2_2/software/build/linux/u-boot/u-boot-plnx/arch/arm/lib/eabi_compat.o
LOAD /opt/PetaLinux/petalinux-v2013.10-final/tools/linux-i386/arm-xilinx-linux-gnueabi/bin/../lib/gcc/arm-xilinx-linux-gnueabi/4.7.3/libgcc.a
OUTPUT(u-boot elf32-littlearm)

.ARM.attributes
                0x00000000       0x33
 .ARM.attributes
                0x00000000       0x23 arch/arm/cpu/armv7/start.o
 .ARM.attributes
                0x00000023       0x2d arch/arm/cpu/armv7/libarmv7.o
 .ARM.attributes
                0x00000050       0x2f arch/arm/cpu/armv7/zynq/libzynq.o
 .ARM.attributes
                0x0000007f       0x2f arch/arm/lib/libarm.o
 .ARM.attributes
                0x000000ae       0x2d common/libcommon.o
 .ARM.attributes
                0x000000db       0x2d disk/libdisk.o
 .ARM.attributes
                0x00000108       0x2d drivers/fpga/libfpga.o
 .ARM.attributes
                0x00000135       0x2d drivers/mmc/libmmc.o
 .ARM.attributes
                0x00000162       0x2d drivers/mtd/spi/libspi_flash.o
 .ARM.attributes
                0x0000018f       0x2d drivers/net/libnet.o
 .ARM.attributes
                0x000001bc       0x2d drivers/net/phy/libphy.o
 .ARM.attributes
                0x000001e9       0x2d drivers/serial/libserial.o
 .ARM.attributes
                0x00000216       0x2d drivers/spi/libspi.o
 .ARM.attributes
                0x00000243       0x2d fs/ext4/libext4fs.o
 .ARM.attributes
                0x00000270       0x2d fs/fat/libfat.o
 .ARM.attributes
                0x0000029d       0x2d fs/libfs.o
 .ARM.attributes
                0x000002ca       0x2d lib/libfdt/libfdt.o
 .ARM.attributes
                0x000002f7       0x2d lib/libgeneric.o
 .ARM.attributes
                0x00000324       0x2d lib/zlib/libz.o
 .ARM.attributes
                0x00000351       0x2d net/libnet.o
 .ARM.attributes
                0x0000037e       0x2d board/xilinx/zynq/libzynq.o
 .ARM.attributes
                0x000003ab       0x2d /home/xyin/Embedded_System_Lab/project_1_2_2/software/build/linux/u-boot/u-boot-plnx/arch/arm/lib/eabi_compat.o
 .ARM.attributes
                0x000003d8       0x25 /opt/PetaLinux/petalinux-v2013.10-final/tools/linux-i386/arm-xilinx-linux-gnueabi/bin/../lib/gcc/arm-xilinx-linux-gnueabi/4.7.3/libgcc.a(_udivsi3.o)
 .ARM.attributes
                0x000003fd       0x25 /opt/PetaLinux/petalinux-v2013.10-final/tools/linux-i386/arm-xilinx-linux-gnueabi/bin/../lib/gcc/arm-xilinx-linux-gnueabi/4.7.3/libgcc.a(_divsi3.o)
 .ARM.attributes
                0x00000422       0x25 /opt/PetaLinux/petalinux-v2013.10-final/tools/linux-i386/arm-xilinx-linux-gnueabi/bin/../lib/gcc/arm-xilinx-linux-gnueabi/4.7.3/libgcc.a(_lshrdi3.o)
 .ARM.attributes
                0x00000447       0x25 /opt/PetaLinux/petalinux-v2013.10-final/tools/linux-i386/arm-xilinx-linux-gnueabi/bin/../lib/gcc/arm-xilinx-linux-gnueabi/4.7.3/libgcc.a(_ashldi3.o)
 .ARM.attributes
                0x0000046c       0x25 /opt/PetaLinux/petalinux-v2013.10-final/tools/linux-i386/arm-xilinx-linux-gnueabi/bin/../lib/gcc/arm-xilinx-linux-gnueabi/4.7.3/libgcc.a(_aeabi_uldivmod.o)
 .ARM.attributes
                0x00000491       0x25 /opt/PetaLinux/petalinux-v2013.10-final/tools/linux-i386/arm-xilinx-linux-gnueabi/bin/../lib/gcc/arm-xilinx-linux-gnueabi/4.7.3/libgcc.a(_dvmd_lnx.o)
 .ARM.attributes
                0x000004b6       0x37 /opt/PetaLinux/petalinux-v2013.10-final/tools/linux-i386/arm-xilinx-linux-gnueabi/bin/../lib/gcc/arm-xilinx-linux-gnueabi/4.7.3/libgcc.a(bpabi.o)
 .ARM.attributes
                0x000004ed       0x37 /opt/PetaLinux/petalinux-v2013.10-final/tools/linux-i386/arm-xilinx-linux-gnueabi/bin/../lib/gcc/arm-xilinx-linux-gnueabi/4.7.3/libgcc.a(_divdi3.o)
 .ARM.attributes
                0x00000524       0x37 /opt/PetaLinux/petalinux-v2013.10-final/tools/linux-i386/arm-xilinx-linux-gnueabi/bin/../lib/gcc/arm-xilinx-linux-gnueabi/4.7.3/libgcc.a(_udivdi3.o)

.comment        0x00000000       0x30
 .comment       0x00000000       0x30 arch/arm/cpu/armv7/libarmv7.o
                                 0x93 (size before relaxing)
 .comment       0x00000000       0xc4 arch/arm/cpu/armv7/zynq/libzynq.o
 .comment       0x00000000      0x188 arch/arm/lib/libarm.o
 .comment       0x00000000      0x992 common/libcommon.o
 .comment       0x00000000       0x62 disk/libdisk.o
 .comment       0x00000000       0x93 drivers/fpga/libfpga.o
 .comment       0x00000000       0x93 drivers/mmc/libmmc.o
 .comment       0x00000000       0xc4 drivers/mtd/spi/libspi_flash.o
 .comment       0x00000000       0x62 drivers/net/libnet.o
 .comment       0x00000000       0x62 drivers/net/phy/libphy.o
 .comment       0x00000000       0x62 drivers/serial/libserial.o
 .comment       0x00000000       0x62 drivers/spi/libspi.o
 .comment       0x00000000       0x93 fs/ext4/libext4fs.o
 .comment       0x00000000       0x62 fs/fat/libfat.o
 .comment       0x00000000       0x31 fs/libfs.o
 .comment       0x00000000      0x157 lib/libfdt/libfdt.o
 .comment       0x00000000      0x436 lib/libgeneric.o
 .comment       0x00000000       0x31 lib/zlib/libz.o
 .comment       0x00000000      0x126 net/libnet.o
 .comment       0x00000000       0x31 board/xilinx/zynq/libzynq.o
 .comment       0x00000000       0x31 /home/xyin/Embedded_System_Lab/project_1_2_2/software/build/linux/u-boot/u-boot-plnx/arch/arm/lib/eabi_compat.o

.note.GNU-stack
                0x00000000        0x0
 .note.GNU-stack
                0x00000000        0x0 arch/arm/cpu/armv7/libarmv7.o
 .note.GNU-stack
                0x00000000        0x0 arch/arm/cpu/armv7/zynq/libzynq.o
 .note.GNU-stack
                0x00000000        0x0 arch/arm/lib/libarm.o
 .note.GNU-stack
                0x00000000        0x0 common/libcommon.o
 .note.GNU-stack
                0x00000000        0x0 disk/libdisk.o
 .note.GNU-stack
                0x00000000        0x0 drivers/fpga/libfpga.o
 .note.GNU-stack
                0x00000000        0x0 drivers/mmc/libmmc.o
 .note.GNU-stack
                0x00000000        0x0 drivers/mtd/spi/libspi_flash.o
 .note.GNU-stack
                0x00000000        0x0 drivers/net/libnet.o
 .note.GNU-stack
                0x00000000        0x0 drivers/net/phy/libphy.o
 .note.GNU-stack
                0x00000000        0x0 drivers/serial/libserial.o
 .note.GNU-stack
                0x00000000        0x0 drivers/spi/libspi.o
 .note.GNU-stack
                0x00000000        0x0 fs/ext4/libext4fs.o
 .note.GNU-stack
                0x00000000        0x0 fs/fat/libfat.o
 .note.GNU-stack
                0x00000000        0x0 fs/libfs.o
 .note.GNU-stack
                0x00000000        0x0 lib/libfdt/libfdt.o
 .note.GNU-stack
                0x00000000        0x0 lib/libgeneric.o
 .note.GNU-stack
                0x00000000        0x0 lib/zlib/libz.o
 .note.GNU-stack
                0x00000000        0x0 net/libnet.o
 .note.GNU-stack
                0x00000000        0x0 board/xilinx/zynq/libzynq.o
 .note.GNU-stack
                0x00000000        0x0 /home/xyin/Embedded_System_Lab/project_1_2_2/software/build/linux/u-boot/u-boot-plnx/arch/arm/lib/eabi_compat.o
 .note.GNU-stack
                0x00000000        0x0 /opt/PetaLinux/petalinux-v2013.10-final/tools/linux-i386/arm-xilinx-linux-gnueabi/bin/../lib/gcc/arm-xilinx-linux-gnueabi/4.7.3/libgcc.a(_udivsi3.o)
 .note.GNU-stack
                0x00000000        0x0 /opt/PetaLinux/petalinux-v2013.10-final/tools/linux-i386/arm-xilinx-linux-gnueabi/bin/../lib/gcc/arm-xilinx-linux-gnueabi/4.7.3/libgcc.a(_divsi3.o)
 .note.GNU-stack
                0x00000000        0x0 /opt/PetaLinux/petalinux-v2013.10-final/tools/linux-i386/arm-xilinx-linux-gnueabi/bin/../lib/gcc/arm-xilinx-linux-gnueabi/4.7.3/libgcc.a(_lshrdi3.o)
 .note.GNU-stack
                0x00000000        0x0 /opt/PetaLinux/petalinux-v2013.10-final/tools/linux-i386/arm-xilinx-linux-gnueabi/bin/../lib/gcc/arm-xilinx-linux-gnueabi/4.7.3/libgcc.a(_ashldi3.o)
 .note.GNU-stack
                0x00000000        0x0 /opt/PetaLinux/petalinux-v2013.10-final/tools/linux-i386/arm-xilinx-linux-gnueabi/bin/../lib/gcc/arm-xilinx-linux-gnueabi/4.7.3/libgcc.a(_aeabi_uldivmod.o)
 .note.GNU-stack
                0x00000000        0x0 /opt/PetaLinux/petalinux-v2013.10-final/tools/linux-i386/arm-xilinx-linux-gnueabi/bin/../lib/gcc/arm-xilinx-linux-gnueabi/4.7.3/libgcc.a(_dvmd_lnx.o)
 .note.GNU-stack
                0x00000000        0x0 /opt/PetaLinux/petalinux-v2013.10-final/tools/linux-i386/arm-xilinx-linux-gnueabi/bin/../lib/gcc/arm-xilinx-linux-gnueabi/4.7.3/libgcc.a(bpabi.o)
 .note.GNU-stack
                0x00000000        0x0 /opt/PetaLinux/petalinux-v2013.10-final/tools/linux-i386/arm-xilinx-linux-gnueabi/bin/../lib/gcc/arm-xilinx-linux-gnueabi/4.7.3/libgcc.a(_divdi3.o)
 .note.GNU-stack
                0x00000000        0x0 /opt/PetaLinux/petalinux-v2013.10-final/tools/linux-i386/arm-xilinx-linux-gnueabi/bin/../lib/gcc/arm-xilinx-linux-gnueabi/4.7.3/libgcc.a(_udivdi3.o)

.debug_line     0x00000000    0x1c718
 .debug_line    0x00000000       0x9a arch/arm/cpu/armv7/start.o
 .debug_line    0x0000009a      0x6cc arch/arm/cpu/armv7/libarmv7.o
 .debug_line    0x00000766      0xad7 arch/arm/cpu/armv7/zynq/libzynq.o
 .debug_line    0x0000123d     0x1503 arch/arm/lib/libarm.o
 .debug_line    0x00002740     0xb2fd common/libcommon.o
 .debug_line    0x0000da3d      0x83c disk/libdisk.o
 .debug_line    0x0000e279      0x9e3 drivers/fpga/libfpga.o
 .debug_line    0x0000ec5c     0x10b5 drivers/mmc/libmmc.o
 .debug_line    0x0000fd11      0xccb drivers/mtd/spi/libspi_flash.o
 .debug_line    0x000109dc      0x8ed drivers/net/libnet.o
 .debug_line    0x000112c9      0xb1c drivers/net/phy/libphy.o
 .debug_line    0x00011de5      0x733 drivers/serial/libserial.o
 .debug_line    0x00012518      0x6bc drivers/spi/libspi.o
 .debug_line    0x00012bd4      0xbe6 fs/ext4/libext4fs.o
 .debug_line    0x000137ba      0xa5c fs/fat/libfat.o
 .debug_line    0x00014216      0x418 fs/libfs.o
 .debug_line    0x0001462e     0x181b lib/libfdt/libfdt.o
 .debug_line    0x00015e49     0x393c lib/libgeneric.o
 .debug_line    0x00019785      0xce2 lib/zlib/libz.o
 .debug_line    0x0001a467     0x1dc7 net/libnet.o
 .debug_line    0x0001c22e      0x335 board/xilinx/zynq/libzynq.o
 .debug_line    0x0001c563      0x1b5 /home/xyin/Embedded_System_Lab/project_1_2_2/software/build/linux/u-boot/u-boot-plnx/arch/arm/lib/eabi_compat.o

.debug_info     0x00000000    0x74b50
 .debug_info    0x00000000       0x9d arch/arm/cpu/armv7/start.o
 .debug_info    0x0000009d     0x14ec arch/arm/cpu/armv7/libarmv7.o
 .debug_info    0x00001589     0x22ea arch/arm/cpu/armv7/zynq/libzynq.o
 .debug_info    0x00003873     0x49bf arch/arm/lib/libarm.o
 .debug_info    0x00008232    0x331e5 common/libcommon.o
 .debug_info    0x0003b417     0x214b disk/libdisk.o
 .debug_info    0x0003d562     0x273a drivers/fpga/libfpga.o
 .debug_info    0x0003fc9c     0x527e drivers/mmc/libmmc.o
 .debug_info    0x00044f1a     0x33b9 drivers/mtd/spi/libspi_flash.o
 .debug_info    0x000482d3     0x2cc2 drivers/net/libnet.o
 .debug_info    0x0004af95     0x42bc drivers/net/phy/libphy.o
 .debug_info    0x0004f251     0x1a03 drivers/serial/libserial.o
 .debug_info    0x00050c54     0x1e18 drivers/spi/libspi.o
 .debug_info    0x00052a6c     0x41c4 fs/ext4/libext4fs.o
 .debug_info    0x00056c30     0x2c71 fs/fat/libfat.o
 .debug_info    0x000598a1     0x1460 fs/libfs.o
 .debug_info    0x0005ad01     0x5d65 lib/libfdt/libfdt.o
 .debug_info    0x00060a66     0x92b9 lib/libgeneric.o
 .debug_info    0x00069d1f     0x16d6 lib/zlib/libz.o
 .debug_info    0x0006b3f5     0x8a6d net/libnet.o
 .debug_info    0x00073e62      0x92c board/xilinx/zynq/libzynq.o
 .debug_info    0x0007478e      0x3c2 /home/xyin/Embedded_System_Lab/project_1_2_2/software/build/linux/u-boot/u-boot-plnx/arch/arm/lib/eabi_compat.o

.debug_abbrev   0x00000000    0x1679a
 .debug_abbrev  0x00000000       0x14 arch/arm/cpu/armv7/start.o
 .debug_abbrev  0x00000014      0x66c arch/arm/cpu/armv7/libarmv7.o
 .debug_abbrev  0x00000680      0x8d6 arch/arm/cpu/armv7/zynq/libzynq.o
 .debug_abbrev  0x00000f56     0x1121 arch/arm/lib/libarm.o
 .debug_abbrev  0x00002077     0x8faa common/libcommon.o
 .debug_abbrev  0x0000b021      0x741 disk/libdisk.o
 .debug_abbrev  0x0000b762      0x95d drivers/fpga/libfpga.o
 .debug_abbrev  0x0000c0bf      0xd43 drivers/mmc/libmmc.o
 .debug_abbrev  0x0000ce02      0xb1b drivers/mtd/spi/libspi_flash.o
 .debug_abbrev  0x0000d91d      0x927 drivers/net/libnet.o
 .debug_abbrev  0x0000e244      0x81c drivers/net/phy/libphy.o
 .debug_abbrev  0x0000ea60      0x72f drivers/serial/libserial.o
 .debug_abbrev  0x0000f18f      0x5fb drivers/spi/libspi.o
 .debug_abbrev  0x0000f78a      0x911 fs/ext4/libext4fs.o
 .debug_abbrev  0x0001009b      0x808 fs/fat/libfat.o
 .debug_abbrev  0x000108a3      0x387 fs/libfs.o
 .debug_abbrev  0x00010c2a      0xfad lib/libfdt/libfdt.o
 .debug_abbrev  0x00011bd7     0x2a06 lib/libgeneric.o
 .debug_abbrev  0x000145dd      0x45d lib/zlib/libz.o
 .debug_abbrev  0x00014a3a     0x19c4 net/libnet.o
 .debug_abbrev  0x000163fe      0x23f board/xilinx/zynq/libzynq.o
 .debug_abbrev  0x0001663d      0x15d /home/xyin/Embedded_System_Lab/project_1_2_2/software/build/linux/u-boot/u-boot-plnx/arch/arm/lib/eabi_compat.o

.debug_aranges  0x00000000     0x2a70
 .debug_aranges
                0x00000000       0x20 arch/arm/cpu/armv7/start.o
 .debug_aranges
                0x00000020       0xf0 arch/arm/cpu/armv7/libarmv7.o
 .debug_aranges
                0x00000110      0x120 arch/arm/cpu/armv7/zynq/libzynq.o
 .debug_aranges
                0x00000230      0x2a0 arch/arm/lib/libarm.o
 .debug_aranges
                0x000004d0      0xf88 common/libcommon.o
 .debug_aranges
                0x00001458       0x98 disk/libdisk.o
 .debug_aranges
                0x000014f0       0xe0 drivers/fpga/libfpga.o
 .debug_aranges
                0x000015d0      0x168 drivers/mmc/libmmc.o
 .debug_aranges
                0x00001738      0x128 drivers/mtd/spi/libspi_flash.o
 .debug_aranges
                0x00001860       0xe8 drivers/net/libnet.o
 .debug_aranges
                0x00001948      0x138 drivers/net/phy/libphy.o
 .debug_aranges
                0x00001a80      0x128 drivers/serial/libserial.o
 .debug_aranges
                0x00001ba8       0xa0 drivers/spi/libspi.o
 .debug_aranges
                0x00001c48       0xd8 fs/ext4/libext4fs.o
 .debug_aranges
                0x00001d20       0xf8 fs/fat/libfat.o
 .debug_aranges
                0x00001e18       0x88 fs/libfs.o
 .debug_aranges
                0x00001ea0      0x2e8 lib/libfdt/libfdt.o
 .debug_aranges
                0x00002188      0x578 lib/libgeneric.o
 .debug_aranges
                0x00002700       0x68 lib/zlib/libz.o
 .debug_aranges
                0x00002768      0x298 net/libnet.o
 .debug_aranges
                0x00002a00       0x40 board/xilinx/zynq/libzynq.o
 .debug_aranges
                0x00002a40       0x30 /home/xyin/Embedded_System_Lab/project_1_2_2/software/build/linux/u-boot/u-boot-plnx/arch/arm/lib/eabi_compat.o

.debug_frame    0x00000000     0x6d00
 .debug_frame   0x00000000      0x1e8 arch/arm/cpu/armv7/libarmv7.o
 .debug_frame   0x000001e8      0x1f4 arch/arm/cpu/armv7/zynq/libzynq.o
 .debug_frame   0x000003dc      0x49c arch/arm/lib/libarm.o
 .debug_frame   0x00000878     0x28b4 common/libcommon.o
 .debug_frame   0x0000312c      0x1b8 disk/libdisk.o
 .debug_frame   0x000032e4      0x204 drivers/fpga/libfpga.o
 .debug_frame   0x000034e8      0x404 drivers/mmc/libmmc.o
 .debug_frame   0x000038ec      0x350 drivers/mtd/spi/libspi_flash.o
 .debug_frame   0x00003c3c      0x29c drivers/net/libnet.o
 .debug_frame   0x00003ed8      0x3b8 drivers/net/phy/libphy.o
 .debug_frame   0x00004290      0x2b4 drivers/serial/libserial.o
 .debug_frame   0x00004544      0x170 drivers/spi/libspi.o
 .debug_frame   0x000046b4      0x248 fs/ext4/libext4fs.o
 .debug_frame   0x000048fc      0x2cc fs/fat/libfat.o
 .debug_frame   0x00004bc8      0x174 fs/libfs.o
 .debug_frame   0x00004d3c      0x904 lib/libfdt/libfdt.o
 .debug_frame   0x00005640      0xcb8 lib/libgeneric.o
 .debug_frame   0x000062f8      0x124 lib/zlib/libz.o
 .debug_frame   0x0000641c      0x6f8 net/libnet.o
 .debug_frame   0x00006b14       0x78 board/xilinx/zynq/libzynq.o
 .debug_frame   0x00006b8c       0x48 /home/xyin/Embedded_System_Lab/project_1_2_2/software/build/linux/u-boot/u-boot-plnx/arch/arm/lib/eabi_compat.o
 .debug_frame   0x00006bd4       0x20 /opt/PetaLinux/petalinux-v2013.10-final/tools/linux-i386/arm-xilinx-linux-gnueabi/bin/../lib/gcc/arm-xilinx-linux-gnueabi/4.7.3/libgcc.a(_udivsi3.o)
 .debug_frame   0x00006bf4       0x20 /opt/PetaLinux/petalinux-v2013.10-final/tools/linux-i386/arm-xilinx-linux-gnueabi/bin/../lib/gcc/arm-xilinx-linux-gnueabi/4.7.3/libgcc.a(_divsi3.o)
 .debug_frame   0x00006c14       0x28 /opt/PetaLinux/petalinux-v2013.10-final/tools/linux-i386/arm-xilinx-linux-gnueabi/bin/../lib/gcc/arm-xilinx-linux-gnueabi/4.7.3/libgcc.a(_aeabi_uldivmod.o)
 .debug_frame   0x00006c3c       0x54 /opt/PetaLinux/petalinux-v2013.10-final/tools/linux-i386/arm-xilinx-linux-gnueabi/bin/../lib/gcc/arm-xilinx-linux-gnueabi/4.7.3/libgcc.a(bpabi.o)
 .debug_frame   0x00006c90       0x38 /opt/PetaLinux/petalinux-v2013.10-final/tools/linux-i386/arm-xilinx-linux-gnueabi/bin/../lib/gcc/arm-xilinx-linux-gnueabi/4.7.3/libgcc.a(_divdi3.o)
 .debug_frame   0x00006cc8       0x38 /opt/PetaLinux/petalinux-v2013.10-final/tools/linux-i386/arm-xilinx-linux-gnueabi/bin/../lib/gcc/arm-xilinx-linux-gnueabi/4.7.3/libgcc.a(_udivdi3.o)

.debug_str      0x00000000     0xb4f1
 .debug_str     0x00000000      0x525 arch/arm/cpu/armv7/libarmv7.o
                                0xbdf (size before relaxing)
 .debug_str     0x00000525      0x5cf arch/arm/cpu/armv7/zynq/libzynq.o
                               0x1390 (size before relaxing)
 .debug_str     0x00000af4     0x13b5 arch/arm/lib/libarm.o
                               0x37a7 (size before relaxing)
 .debug_str     0x00001ea9     0x45c7 common/libcommon.o
                              0x16654 (size before relaxing)
 .debug_str     0x00006470      0x2ba disk/libdisk.o
                                0xb8f (size before relaxing)
 .debug_str     0x0000672a      0x340 drivers/fpga/libfpga.o
                               0x1046 (size before relaxing)
 .debug_str     0x00006a6a      0x4ec drivers/mmc/libmmc.o
                               0x1631 (size before relaxing)
 .debug_str     0x00006f56      0x51f drivers/mtd/spi/libspi_flash.o
                               0x17cb (size before relaxing)
 .debug_str     0x00007475      0x53c drivers/net/libnet.o
                               0x107a (size before relaxing)
 .debug_str     0x000079b1      0x3bf drivers/net/phy/libphy.o
                                0xf11 (size before relaxing)
 .debug_str     0x00007d70      0x389 drivers/serial/libserial.o
                                0xb5d (size before relaxing)
 .debug_str     0x000080f9      0x3a8 drivers/spi/libspi.o
                                0xb41 (size before relaxing)
 .debug_str     0x000084a1      0x93e fs/ext4/libext4fs.o
                               0x1d77 (size before relaxing)
 .debug_str     0x00008ddf      0x5ab fs/fat/libfat.o
                                0xd6c (size before relaxing)
 .debug_str     0x0000938a      0x10f fs/libfs.o
                                0x708 (size before relaxing)
 .debug_str     0x00009499      0x797 lib/libfdt/libfdt.o
                               0x1b36 (size before relaxing)
 .debug_str     0x00009c30      0x7e0 lib/libgeneric.o
                               0x43c5 (size before relaxing)
 .debug_str     0x0000a410      0x2ee lib/zlib/libz.o
                                0x75d (size before relaxing)
 .debug_str     0x0000a6fe      0xcdf net/libnet.o
                               0x482a (size before relaxing)
 .debug_str     0x0000b3dd       0xcb board/xilinx/zynq/libzynq.o
                                0x654 (size before relaxing)
 .debug_str     0x0000b4a8       0x49 /home/xyin/Embedded_System_Lab/project_1_2_2/software/build/linux/u-boot/u-boot-plnx/arch/arm/lib/eabi_compat.o
                                0x2e5 (size before relaxing)

.debug_loc      0x00000000    0x3e274
 .debug_loc     0x00000000      0x6c1 arch/arm/cpu/armv7/libarmv7.o
 .debug_loc     0x000006c1      0x487 arch/arm/cpu/armv7/zynq/libzynq.o
 .debug_loc     0x00000b48      0xa9d arch/arm/lib/libarm.o
 .debug_loc     0x000015e5    0x18a64 common/libcommon.o
 .debug_loc     0x0001a049      0xfaf disk/libdisk.o
 .debug_loc     0x0001aff8     0x1258 drivers/fpga/libfpga.o
 .debug_loc     0x0001c250     0x26de drivers/mmc/libmmc.o
 .debug_loc     0x0001e92e     0x187d drivers/mtd/spi/libspi_flash.o
 .debug_loc     0x000201ab     0x10d3 drivers/net/libnet.o
 .debug_loc     0x0002127e     0x2307 drivers/net/phy/libphy.o
 .debug_loc     0x00023585      0x6df drivers/serial/libserial.o
 .debug_loc     0x00023c64      0xc71 drivers/spi/libspi.o
 .debug_loc     0x000248d5     0x1d60 fs/ext4/libext4fs.o
 .debug_loc     0x00026635     0x2405 fs/fat/libfat.o
 .debug_loc     0x00028a3a      0x99d fs/libfs.o
 .debug_loc     0x000293d7     0x4919 lib/libfdt/libfdt.o
 .debug_loc     0x0002dcf0     0xa0d1 lib/libgeneric.o
 .debug_loc     0x00037dc1     0x2b1e lib/zlib/libz.o
 .debug_loc     0x0003a8df     0x3894 net/libnet.o
 .debug_loc     0x0003e173       0xb5 board/xilinx/zynq/libzynq.o
 .debug_loc     0x0003e228       0x4c /home/xyin/Embedded_System_Lab/project_1_2_2/software/build/linux/u-boot/u-boot-plnx/arch/arm/lib/eabi_compat.o

.debug_ranges   0x00000000     0x5ba8
 .debug_ranges  0x00000000      0x120 arch/arm/cpu/armv7/libarmv7.o
 .debug_ranges  0x00000120      0x108 arch/arm/cpu/armv7/zynq/libzynq.o
 .debug_ranges  0x00000228      0x1d8 arch/arm/lib/libarm.o
 .debug_ranges  0x00000400     0x1f20 common/libcommon.o
 .debug_ranges  0x00002320      0x1e0 disk/libdisk.o
 .debug_ranges  0x00002500      0x228 drivers/fpga/libfpga.o
 .debug_ranges  0x00002728      0x560 drivers/mmc/libmmc.o
 .debug_ranges  0x00002c88      0x1f0 drivers/mtd/spi/libspi_flash.o
 .debug_ranges  0x00002e78      0x1a0 drivers/net/libnet.o
 .debug_ranges  0x00003018      0x930 drivers/net/phy/libphy.o
 .debug_ranges  0x00003948      0x150 drivers/serial/libserial.o
 .debug_ranges  0x00003a98      0x2b0 drivers/spi/libspi.o
 .debug_ranges  0x00003d48      0x3e0 fs/ext4/libext4fs.o
 .debug_ranges  0x00004128      0x218 fs/fat/libfat.o
 .debug_ranges  0x00004340       0x78 fs/libfs.o
 .debug_ranges  0x000043b8      0x560 lib/libfdt/libfdt.o
 .debug_ranges  0x00004918      0x8c0 lib/libgeneric.o
 .debug_ranges  0x000051d8       0xa0 lib/zlib/libz.o
 .debug_ranges  0x00005278      0x8e0 net/libnet.o
 .debug_ranges  0x00005b58       0x30 board/xilinx/zynq/libzynq.o
 .debug_ranges  0x00005b88       0x20 /home/xyin/Embedded_System_Lab/project_1_2_2/software/build/linux/u-boot/u-boot-plnx/arch/arm/lib/eabi_compat.o
